
dis:     file format elf64-x86-64


Disassembly of section .text:

0000000000400f80 <_start>:
  400f80:	31 ed                	xor    %ebp,%ebp
  400f82:	49 89 d1             	mov    %rdx,%r9
  400f85:	5e                   	pop    %rsi
  400f86:	48 89 e2             	mov    %rsp,%rdx
  400f89:	48 83 e4 f0          	and    $0xfffffffffffffff0,%rsp
  400f8d:	50                   	push   %rax
  400f8e:	54                   	push   %rsp
  400f8f:	49 c7 c0 60 53 40 00 	mov    $0x405360,%r8
  400f96:	48 c7 c1 f0 52 40 00 	mov    $0x4052f0,%rcx
  400f9d:	48 c7 c7 a0 10 40 00 	mov    $0x4010a0,%rdi
  400fa4:	ff 15 46 70 20 00    	callq  *0x207046(%rip)        # 607ff0 <__libc_start_main@GLIBC_2.2.5>
  400faa:	f4                   	hlt    
  400fab:	0f 1f 44 00 00       	nopl   0x0(%rax,%rax,1)

0000000000400fb0 <_dl_relocate_static_pie>:
  400fb0:	f3 c3                	repz retq 
  400fb2:	66 2e 0f 1f 84 00 00 	nopw   %cs:0x0(%rax,%rax,1)
  400fb9:	00 00 00 
  400fbc:	0f 1f 40 00          	nopl   0x0(%rax)

0000000000400fc0 <deregister_tm_clones>:
  400fc0:	55                   	push   %rbp
  400fc1:	b8 10 82 60 00       	mov    $0x608210,%eax
  400fc6:	48 3d 10 82 60 00    	cmp    $0x608210,%rax
  400fcc:	48 89 e5             	mov    %rsp,%rbp
  400fcf:	74 17                	je     400fe8 <deregister_tm_clones+0x28>
  400fd1:	b8 00 00 00 00       	mov    $0x0,%eax
  400fd6:	48 85 c0             	test   %rax,%rax
  400fd9:	74 0d                	je     400fe8 <deregister_tm_clones+0x28>
  400fdb:	5d                   	pop    %rbp
  400fdc:	bf 10 82 60 00       	mov    $0x608210,%edi
  400fe1:	ff e0                	jmpq   *%rax
  400fe3:	0f 1f 44 00 00       	nopl   0x0(%rax,%rax,1)
  400fe8:	5d                   	pop    %rbp
  400fe9:	c3                   	retq   
  400fea:	66 0f 1f 44 00 00    	nopw   0x0(%rax,%rax,1)

0000000000400ff0 <register_tm_clones>:
  400ff0:	be 10 82 60 00       	mov    $0x608210,%esi
  400ff5:	55                   	push   %rbp
  400ff6:	48 81 ee 10 82 60 00 	sub    $0x608210,%rsi
  400ffd:	48 89 e5             	mov    %rsp,%rbp
  401000:	48 c1 fe 03          	sar    $0x3,%rsi
  401004:	48 89 f0             	mov    %rsi,%rax
  401007:	48 c1 e8 3f          	shr    $0x3f,%rax
  40100b:	48 01 c6             	add    %rax,%rsi
  40100e:	48 d1 fe             	sar    %rsi
  401011:	74 15                	je     401028 <register_tm_clones+0x38>
  401013:	b8 00 00 00 00       	mov    $0x0,%eax
  401018:	48 85 c0             	test   %rax,%rax
  40101b:	74 0b                	je     401028 <register_tm_clones+0x38>
  40101d:	5d                   	pop    %rbp
  40101e:	bf 10 82 60 00       	mov    $0x608210,%edi
  401023:	ff e0                	jmpq   *%rax
  401025:	0f 1f 00             	nopl   (%rax)
  401028:	5d                   	pop    %rbp
  401029:	c3                   	retq   
  40102a:	66 0f 1f 44 00 00    	nopw   0x0(%rax,%rax,1)

0000000000401030 <__do_global_dtors_aux>:
  401030:	80 3d e9 d2 20 00 00 	cmpb   $0x0,0x20d2e9(%rip)        # 60e320 <__stop___llvm_prf_vnds>
  401037:	75 17                	jne    401050 <__do_global_dtors_aux+0x20>
  401039:	55                   	push   %rbp
  40103a:	48 89 e5             	mov    %rsp,%rbp
  40103d:	e8 7e ff ff ff       	callq  400fc0 <deregister_tm_clones>
  401042:	c6 05 d7 d2 20 00 01 	movb   $0x1,0x20d2d7(%rip)        # 60e320 <__stop___llvm_prf_vnds>
  401049:	5d                   	pop    %rbp
  40104a:	c3                   	retq   
  40104b:	0f 1f 44 00 00       	nopl   0x0(%rax,%rax,1)
  401050:	f3 c3                	repz retq 
  401052:	0f 1f 40 00          	nopl   0x0(%rax)
  401056:	66 2e 0f 1f 84 00 00 	nopw   %cs:0x0(%rax,%rax,1)
  40105d:	00 00 00 

0000000000401060 <frame_dummy>:
  401060:	55                   	push   %rbp
  401061:	48 89 e5             	mov    %rsp,%rbp
  401064:	5d                   	pop    %rbp
  401065:	eb 89                	jmp    400ff0 <register_tm_clones>
  401067:	66 0f 1f 84 00 00 00 	nopw   0x0(%rax,%rax,1)
  40106e:	00 00 

0000000000401070 <_Z1hv>:
  401070:	55                   	push   %rbp
  401071:	48 89 e5             	mov    %rsp,%rbp
  401074:	48 8b 04 25 28 82 60 	mov    0x608228,%rax
  40107b:	00 
  40107c:	48 83 c0 01          	add    $0x1,%rax
  401080:	48 89 04 25 28 82 60 	mov    %rax,0x608228
  401087:	00 
  401088:	48 8b 04 25 10 82 60 	mov    0x608210,%rax
  40108f:	00 
  401090:	48 83 c0 01          	add    $0x1,%rax
  401094:	48 89 04 25 10 82 60 	mov    %rax,0x608210
  40109b:	00 
  40109c:	5d                   	pop    %rbp
  40109d:	c3                   	retq   
  40109e:	66 90                	xchg   %ax,%ax

00000000004010a0 <main>:
  4010a0:	55                   	push   %rbp
  4010a1:	48 89 e5             	mov    %rsp,%rbp
  4010a4:	48 83 ec 30          	sub    $0x30,%rsp
  4010a8:	31 c0                	xor    %eax,%eax
  4010aa:	89 c1                	mov    %eax,%ecx
  4010ac:	48 8b 14 25 38 82 60 	mov    0x608238,%rdx
  4010b3:	00 
  4010b4:	48 83 c2 01          	add    $0x1,%rdx
  4010b8:	48 89 14 25 38 82 60 	mov    %rdx,0x608238
  4010bf:	00 
  4010c0:	48 8b 14 25 20 82 60 	mov    0x608220,%rdx
  4010c7:	00 
  4010c8:	48 83 c2 01          	add    $0x1,%rdx
  4010cc:	48 89 14 25 20 82 60 	mov    %rdx,0x608220
  4010d3:	00 
  4010d4:	c7 45 fc 00 00 00 00 	movl   $0x0,-0x4(%rbp)
  4010db:	c7 45 f8 00 00 00 00 	movl   $0x0,-0x8(%rbp)
  4010e2:	48 89 ca             	mov    %rcx,%rdx
  4010e5:	48 89 55 f0          	mov    %rdx,-0x10(%rbp)
  4010e9:	48 89 4d e8          	mov    %rcx,-0x18(%rbp)
  4010ed:	48 8b 45 e8          	mov    -0x18(%rbp),%rax
  4010f1:	48 8b 4d f0          	mov    -0x10(%rbp),%rcx
  4010f5:	83 7d f8 64          	cmpl   $0x64,-0x8(%rbp)
  4010f9:	48 89 c2             	mov    %rax,%rdx
  4010fc:	48 89 45 e0          	mov    %rax,-0x20(%rbp)
  401100:	48 89 4d d8          	mov    %rcx,-0x28(%rbp)
  401104:	48 89 55 d0          	mov    %rdx,-0x30(%rbp)
  401108:	0f 8d 2b 00 00 00    	jge    401139 <main+0x99>
  40110e:	e8 5d ff ff ff       	callq  401070 <_Z1hv>
  401113:	48 8b 45 d8          	mov    -0x28(%rbp),%rax
  401117:	48 83 c0 01          	add    $0x1,%rax
  40111b:	48 8b 4d e0          	mov    -0x20(%rbp),%rcx
  40111f:	48 83 c1 01          	add    $0x1,%rcx
  401123:	8b 55 f8             	mov    -0x8(%rbp),%edx
  401126:	83 c2 01             	add    $0x1,%edx
  401129:	89 55 f8             	mov    %edx,-0x8(%rbp)
  40112c:	48 89 45 f0          	mov    %rax,-0x10(%rbp)
  401130:	48 89 4d e8          	mov    %rcx,-0x18(%rbp)
  401134:	e9 b4 ff ff ff       	jmpq   4010ed <main+0x4d>
  401139:	48 8b 45 d0          	mov    -0x30(%rbp),%rax
  40113d:	31 c9                	xor    %ecx,%ecx
  40113f:	48 8b 55 d8          	mov    -0x28(%rbp),%rdx
  401143:	48 03 14 25 30 82 60 	add    0x608230,%rdx
  40114a:	00 
  40114b:	48 89 14 25 30 82 60 	mov    %rdx,0x608230
  401152:	00 
  401153:	48 03 04 25 18 82 60 	add    0x608218,%rax
  40115a:	00 
  40115b:	48 89 04 25 18 82 60 	mov    %rax,0x608218
  401162:	00 
  401163:	89 c8                	mov    %ecx,%eax
  401165:	48 83 c4 30          	add    $0x30,%rsp
  401169:	5d                   	pop    %rbp
  40116a:	c3                   	retq   
  40116b:	90                   	nop

000000000040116c <_ZN12_GLOBAL__N_115RegisterRuntimeC1Ev>:
  40116c:	55                   	push   %rbp
  40116d:	48 89 e5             	mov    %rsp,%rbp
  401170:	48 83 ec 10          	sub    $0x10,%rsp
  401174:	48 89 7d f8          	mov    %rdi,-0x8(%rbp)
  401178:	e8 4a 1a 00 00       	callq  402bc7 <__llvm_profile_register_write_file_atexit>
  40117d:	e8 77 15 00 00       	callq  4026f9 <__llvm_profile_initialize_file>
  401182:	90                   	nop
  401183:	c9                   	leaveq 
  401184:	c3                   	retq   

0000000000401185 <_Z41__static_initialization_and_destruction_0ii>:
  401185:	55                   	push   %rbp
  401186:	48 89 e5             	mov    %rsp,%rbp
  401189:	48 83 ec 10          	sub    $0x10,%rsp
  40118d:	89 7d fc             	mov    %edi,-0x4(%rbp)
  401190:	89 75 f8             	mov    %esi,-0x8(%rbp)
  401193:	83 7d fc 01          	cmpl   $0x1,-0x4(%rbp)
  401197:	75 15                	jne    4011ae <_Z41__static_initialization_and_destruction_0ii+0x29>
  401199:	81 7d f8 ff ff 00 00 	cmpl   $0xffff,-0x8(%rbp)
  4011a0:	75 0c                	jne    4011ae <_Z41__static_initialization_and_destruction_0ii+0x29>
  4011a2:	48 8d 3d 7f d1 20 00 	lea    0x20d17f(%rip),%rdi        # 60e328 <_ZN12_GLOBAL__N_112RegistrationE>
  4011a9:	e8 be ff ff ff       	callq  40116c <_ZN12_GLOBAL__N_115RegisterRuntimeC1Ev>
  4011ae:	90                   	nop
  4011af:	c9                   	leaveq 
  4011b0:	c3                   	retq   

00000000004011b1 <_GLOBAL__sub_I_InstrProfilingRuntime.cc>:
  4011b1:	55                   	push   %rbp
  4011b2:	48 89 e5             	mov    %rsp,%rbp
  4011b5:	be ff ff 00 00       	mov    $0xffff,%esi
  4011ba:	bf 01 00 00 00       	mov    $0x1,%edi
  4011bf:	e8 c1 ff ff ff       	callq  401185 <_Z41__static_initialization_and_destruction_0ii>
  4011c4:	5d                   	pop    %rbp
  4011c5:	c3                   	retq   

00000000004011c6 <getPNSStr>:
  4011c6:	55                   	push   %rbp
  4011c7:	48 89 e5             	mov    %rsp,%rbp
  4011ca:	89 7d fc             	mov    %edi,-0x4(%rbp)
  4011cd:	8b 45 fc             	mov    -0x4(%rbp),%eax
  4011d0:	83 f8 02             	cmp    $0x2,%eax
  4011d3:	74 21                	je     4011f6 <getPNSStr+0x30>
  4011d5:	83 f8 02             	cmp    $0x2,%eax
  4011d8:	77 07                	ja     4011e1 <getPNSStr+0x1b>
  4011da:	83 f8 01             	cmp    $0x1,%eax
  4011dd:	74 0e                	je     4011ed <getPNSStr+0x27>
  4011df:	eb 30                	jmp    401211 <getPNSStr+0x4b>
  4011e1:	83 f8 03             	cmp    $0x3,%eax
  4011e4:	74 19                	je     4011ff <getPNSStr+0x39>
  4011e6:	83 f8 04             	cmp    $0x4,%eax
  4011e9:	74 1d                	je     401208 <getPNSStr+0x42>
  4011eb:	eb 24                	jmp    401211 <getPNSStr+0x4b>
  4011ed:	48 8d 05 e4 41 00 00 	lea    0x41e4(%rip),%rax        # 4053d8 <__llvm_profile_filename.7+0x18>
  4011f4:	eb 22                	jmp    401218 <getPNSStr+0x52>
  4011f6:	48 8d 05 eb 41 00 00 	lea    0x41eb(%rip),%rax        # 4053e8 <__llvm_profile_filename.7+0x28>
  4011fd:	eb 19                	jmp    401218 <getPNSStr+0x52>
  4011ff:	48 8d 05 ef 41 00 00 	lea    0x41ef(%rip),%rax        # 4053f5 <__llvm_profile_filename.7+0x35>
  401206:	eb 10                	jmp    401218 <getPNSStr+0x52>
  401208:	48 8d 05 fb 41 00 00 	lea    0x41fb(%rip),%rax        # 40540a <__llvm_profile_filename.7+0x4a>
  40120f:	eb 07                	jmp    401218 <getPNSStr+0x52>
  401211:	48 8d 05 fe 41 00 00 	lea    0x41fe(%rip),%rax        # 405416 <__llvm_profile_filename.7+0x56>
  401218:	5d                   	pop    %rbp
  401219:	c3                   	retq   

000000000040121a <doMerging>:
  40121a:	55                   	push   %rbp
  40121b:	48 89 e5             	mov    %rsp,%rbp
  40121e:	48 c7 c0 40 e3 60 00 	mov    $0x60e340,%rax
  401225:	8b 80 b8 00 00 00    	mov    0xb8(%rax),%eax
  40122b:	5d                   	pop    %rbp
  40122c:	c3                   	retq   

000000000040122d <fileWriter>:
  40122d:	55                   	push   %rbp
  40122e:	48 89 e5             	mov    %rsp,%rbp
  401231:	48 83 ec 30          	sub    $0x30,%rsp
  401235:	48 89 7d e8          	mov    %rdi,-0x18(%rbp)
  401239:	48 89 75 e0          	mov    %rsi,-0x20(%rbp)
  40123d:	89 55 dc             	mov    %edx,-0x24(%rbp)
  401240:	48 8b 45 e8          	mov    -0x18(%rbp),%rax
  401244:	48 8b 40 08          	mov    0x8(%rax),%rax
  401248:	48 89 45 f8          	mov    %rax,-0x8(%rbp)
  40124c:	c7 45 f4 00 00 00 00 	movl   $0x0,-0xc(%rbp)
  401253:	e9 25 01 00 00       	jmpq   40137d <fileWriter+0x150>
  401258:	8b 55 f4             	mov    -0xc(%rbp),%edx
  40125b:	48 89 d0             	mov    %rdx,%rax
  40125e:	48 01 c0             	add    %rax,%rax
  401261:	48 01 d0             	add    %rdx,%rax
  401264:	48 c1 e0 03          	shl    $0x3,%rax
  401268:	48 89 c2             	mov    %rax,%rdx
  40126b:	48 8b 45 e0          	mov    -0x20(%rbp),%rax
  40126f:	48 01 d0             	add    %rdx,%rax
  401272:	48 8b 00             	mov    (%rax),%rax
  401275:	48 85 c0             	test   %rax,%rax
  401278:	0f 84 98 00 00 00    	je     401316 <fileWriter+0xe9>
  40127e:	8b 55 f4             	mov    -0xc(%rbp),%edx
  401281:	48 89 d0             	mov    %rdx,%rax
  401284:	48 01 c0             	add    %rax,%rax
  401287:	48 01 d0             	add    %rdx,%rax
  40128a:	48 c1 e0 03          	shl    $0x3,%rax
  40128e:	48 89 c2             	mov    %rax,%rdx
  401291:	48 8b 45 e0          	mov    -0x20(%rbp),%rax
  401295:	48 01 d0             	add    %rdx,%rax
  401298:	48 8b 78 10          	mov    0x10(%rax),%rdi
  40129c:	8b 55 f4             	mov    -0xc(%rbp),%edx
  40129f:	48 89 d0             	mov    %rdx,%rax
  4012a2:	48 01 c0             	add    %rax,%rax
  4012a5:	48 01 d0             	add    %rdx,%rax
  4012a8:	48 c1 e0 03          	shl    $0x3,%rax
  4012ac:	48 89 c2             	mov    %rax,%rdx
  4012af:	48 8b 45 e0          	mov    -0x20(%rbp),%rax
  4012b3:	48 01 d0             	add    %rdx,%rax
  4012b6:	48 8b 70 08          	mov    0x8(%rax),%rsi
  4012ba:	8b 55 f4             	mov    -0xc(%rbp),%edx
  4012bd:	48 89 d0             	mov    %rdx,%rax
  4012c0:	48 01 c0             	add    %rax,%rax
  4012c3:	48 01 d0             	add    %rdx,%rax
  4012c6:	48 c1 e0 03          	shl    $0x3,%rax
  4012ca:	48 89 c2             	mov    %rax,%rdx
  4012cd:	48 8b 45 e0          	mov    -0x20(%rbp),%rax
  4012d1:	48 01 d0             	add    %rdx,%rax
  4012d4:	48 8b 00             	mov    (%rax),%rax
  4012d7:	48 8b 55 f8          	mov    -0x8(%rbp),%rdx
  4012db:	48 89 d1             	mov    %rdx,%rcx
  4012de:	48 89 fa             	mov    %rdi,%rdx
  4012e1:	48 89 c7             	mov    %rax,%rdi
  4012e4:	e8 77 fc ff ff       	callq  400f60 <fwrite@plt>
  4012e9:	48 89 c1             	mov    %rax,%rcx
  4012ec:	8b 55 f4             	mov    -0xc(%rbp),%edx
  4012ef:	48 89 d0             	mov    %rdx,%rax
  4012f2:	48 01 c0             	add    %rax,%rax
  4012f5:	48 01 d0             	add    %rdx,%rax
  4012f8:	48 c1 e0 03          	shl    $0x3,%rax
  4012fc:	48 89 c2             	mov    %rax,%rdx
  4012ff:	48 8b 45 e0          	mov    -0x20(%rbp),%rax
  401303:	48 01 d0             	add    %rdx,%rax
  401306:	48 8b 40 10          	mov    0x10(%rax),%rax
  40130a:	48 39 c1             	cmp    %rax,%rcx
  40130d:	74 6a                	je     401379 <fileWriter+0x14c>
  40130f:	b8 01 00 00 00       	mov    $0x1,%eax
  401314:	eb 78                	jmp    40138e <fileWriter+0x161>
  401316:	8b 55 f4             	mov    -0xc(%rbp),%edx
  401319:	48 89 d0             	mov    %rdx,%rax
  40131c:	48 01 c0             	add    %rax,%rax
  40131f:	48 01 d0             	add    %rdx,%rax
  401322:	48 c1 e0 03          	shl    $0x3,%rax
  401326:	48 89 c2             	mov    %rax,%rdx
  401329:	48 8b 45 e0          	mov    -0x20(%rbp),%rax
  40132d:	48 01 d0             	add    %rdx,%rax
  401330:	48 8b 48 08          	mov    0x8(%rax),%rcx
  401334:	8b 55 f4             	mov    -0xc(%rbp),%edx
  401337:	48 89 d0             	mov    %rdx,%rax
  40133a:	48 01 c0             	add    %rax,%rax
  40133d:	48 01 d0             	add    %rdx,%rax
  401340:	48 c1 e0 03          	shl    $0x3,%rax
  401344:	48 89 c2             	mov    %rax,%rdx
  401347:	48 8b 45 e0          	mov    -0x20(%rbp),%rax
  40134b:	48 01 d0             	add    %rdx,%rax
  40134e:	48 8b 40 10          	mov    0x10(%rax),%rax
  401352:	48 0f af c1          	imul   %rcx,%rax
  401356:	48 89 c1             	mov    %rax,%rcx
  401359:	48 8b 45 f8          	mov    -0x8(%rbp),%rax
  40135d:	ba 01 00 00 00       	mov    $0x1,%edx
  401362:	48 89 ce             	mov    %rcx,%rsi
  401365:	48 89 c7             	mov    %rax,%rdi
  401368:	e8 13 fb ff ff       	callq  400e80 <fseek@plt>
  40136d:	83 f8 ff             	cmp    $0xffffffff,%eax
  401370:	75 07                	jne    401379 <fileWriter+0x14c>
  401372:	b8 01 00 00 00       	mov    $0x1,%eax
  401377:	eb 15                	jmp    40138e <fileWriter+0x161>
  401379:	83 45 f4 01          	addl   $0x1,-0xc(%rbp)
  40137d:	8b 45 f4             	mov    -0xc(%rbp),%eax
  401380:	3b 45 dc             	cmp    -0x24(%rbp),%eax
  401383:	0f 82 cf fe ff ff    	jb     401258 <fileWriter+0x2b>
  401389:	b8 00 00 00 00       	mov    $0x0,%eax
  40138e:	c9                   	leaveq 
  40138f:	c3                   	retq   

0000000000401390 <orderFileWriter>:
  401390:	55                   	push   %rbp
  401391:	48 89 e5             	mov    %rsp,%rbp
  401394:	48 83 ec 10          	sub    $0x10,%rsp
  401398:	48 89 7d f8          	mov    %rdi,-0x8(%rbp)
  40139c:	48 89 75 f0          	mov    %rsi,-0x10(%rbp)
  4013a0:	48 8b 55 f8          	mov    -0x8(%rbp),%rdx
  4013a4:	48 8b 45 f0          	mov    -0x10(%rbp),%rax
  4013a8:	48 89 d1             	mov    %rdx,%rcx
  4013ab:	ba 00 00 02 00       	mov    $0x20000,%edx
  4013b0:	be 04 00 00 00       	mov    $0x4,%esi
  4013b5:	48 89 c7             	mov    %rax,%rdi
  4013b8:	e8 a3 fb ff ff       	callq  400f60 <fwrite@plt>
  4013bd:	48 3d 00 00 02 00    	cmp    $0x20000,%rax
  4013c3:	74 07                	je     4013cc <orderFileWriter+0x3c>
  4013c5:	b8 01 00 00 00       	mov    $0x1,%eax
  4013ca:	eb 05                	jmp    4013d1 <orderFileWriter+0x41>
  4013cc:	b8 00 00 00 00       	mov    $0x0,%eax
  4013d1:	c9                   	leaveq 
  4013d2:	c3                   	retq   

00000000004013d3 <initFileWriter>:
  4013d3:	55                   	push   %rbp
  4013d4:	48 89 e5             	mov    %rsp,%rbp
  4013d7:	48 89 7d f8          	mov    %rdi,-0x8(%rbp)
  4013db:	48 89 75 f0          	mov    %rsi,-0x10(%rbp)
  4013df:	48 8b 45 f8          	mov    -0x8(%rbp),%rax
  4013e3:	48 8d 15 43 fe ff ff 	lea    -0x1bd(%rip),%rdx        # 40122d <fileWriter>
  4013ea:	48 89 10             	mov    %rdx,(%rax)
  4013ed:	48 8b 45 f8          	mov    -0x8(%rbp),%rax
  4013f1:	48 8b 55 f0          	mov    -0x10(%rbp),%rdx
  4013f5:	48 89 50 08          	mov    %rdx,0x8(%rax)
  4013f9:	90                   	nop
  4013fa:	5d                   	pop    %rbp
  4013fb:	c3                   	retq   

00000000004013fc <lprofCreateBufferIOInternal>:
  4013fc:	55                   	push   %rbp
  4013fd:	48 89 e5             	mov    %rsp,%rbp
  401400:	48 83 ec 20          	sub    $0x20,%rsp
  401404:	48 89 7d e8          	mov    %rdi,-0x18(%rbp)
  401408:	89 75 e4             	mov    %esi,-0x1c(%rbp)
  40140b:	48 8b 05 ce 6b 20 00 	mov    0x206bce(%rip),%rax        # 607fe0 <free@GLIBC_2.2.5>
  401412:	48 89 05 07 d0 20 00 	mov    %rax,0x20d007(%rip)        # 60e420 <FreeHook>
  401419:	8b 45 e4             	mov    -0x1c(%rbp),%eax
  40141c:	be 01 00 00 00       	mov    $0x1,%esi
  401421:	48 89 c7             	mov    %rax,%rdi
  401424:	e8 d7 f9 ff ff       	callq  400e00 <calloc@plt>
  401429:	48 89 05 f8 cf 20 00 	mov    %rax,0x20cff8(%rip)        # 60e428 <DynamicBufferIOBuffer>
  401430:	8b 45 e4             	mov    -0x1c(%rbp),%eax
  401433:	89 05 f7 cf 20 00    	mov    %eax,0x20cff7(%rip)        # 60e430 <VPBufferSize>
  401439:	be 01 00 00 00       	mov    $0x1,%esi
  40143e:	bf 10 00 00 00       	mov    $0x10,%edi
  401443:	e8 b8 f9 ff ff       	callq  400e00 <calloc@plt>
  401448:	48 89 45 f0          	mov    %rax,-0x10(%rbp)
  40144c:	48 8b 55 e8          	mov    -0x18(%rbp),%rdx
  401450:	48 8b 45 f0          	mov    -0x10(%rbp),%rax
  401454:	48 89 d6             	mov    %rdx,%rsi
  401457:	48 89 c7             	mov    %rax,%rdi
  40145a:	e8 74 ff ff ff       	callq  4013d3 <initFileWriter>
  40145f:	48 8b 45 f0          	mov    -0x10(%rbp),%rax
  401463:	48 89 c7             	mov    %rax,%rdi
  401466:	e8 46 1e 00 00       	callq  4032b1 <lprofCreateBufferIO>
  40146b:	48 89 45 f8          	mov    %rax,-0x8(%rbp)
  40146f:	48 8b 45 f8          	mov    -0x8(%rbp),%rax
  401473:	c7 40 08 01 00 00 00 	movl   $0x1,0x8(%rax)
  40147a:	48 8b 45 f8          	mov    -0x8(%rbp),%rax
  40147e:	c9                   	leaveq 
  40147f:	c3                   	retq   

0000000000401480 <setupIOBuffer>:
  401480:	55                   	push   %rbp
  401481:	48 89 e5             	mov    %rsp,%rbp
  401484:	48 83 ec 10          	sub    $0x10,%rsp
  401488:	48 c7 45 f8 00 00 00 	movq   $0x0,-0x8(%rbp)
  40148f:	00 
  401490:	48 8d 3d 87 3f 00 00 	lea    0x3f87(%rip),%rdi        # 40541e <__llvm_profile_filename.7+0x5e>
  401497:	e8 14 fa ff ff       	callq  400eb0 <getenv@plt>
  40149c:	48 89 45 f8          	mov    %rax,-0x8(%rbp)
  4014a0:	48 83 7d f8 00       	cmpq   $0x0,-0x8(%rbp)
  4014a5:	74 39                	je     4014e0 <setupIOBuffer+0x60>
  4014a7:	48 8b 45 f8          	mov    -0x8(%rbp),%rax
  4014ab:	0f b6 00             	movzbl (%rax),%eax
  4014ae:	84 c0                	test   %al,%al
  4014b0:	74 2e                	je     4014e0 <setupIOBuffer+0x60>
  4014b2:	48 8b 45 f8          	mov    -0x8(%rbp),%rax
  4014b6:	48 89 c7             	mov    %rax,%rdi
  4014b9:	e8 62 fa ff ff       	callq  400f20 <atoi@plt>
  4014be:	89 05 6c cf 20 00    	mov    %eax,0x20cf6c(%rip)        # 60e430 <VPBufferSize>
  4014c4:	8b 05 66 cf 20 00    	mov    0x20cf66(%rip),%eax        # 60e430 <VPBufferSize>
  4014ca:	89 c0                	mov    %eax,%eax
  4014cc:	be 01 00 00 00       	mov    $0x1,%esi
  4014d1:	48 89 c7             	mov    %rax,%rdi
  4014d4:	e8 27 f9 ff ff       	callq  400e00 <calloc@plt>
  4014d9:	48 89 05 48 cf 20 00 	mov    %rax,0x20cf48(%rip)        # 60e428 <DynamicBufferIOBuffer>
  4014e0:	90                   	nop
  4014e1:	c9                   	leaveq 
  4014e2:	c3                   	retq   

00000000004014e3 <doProfileMerging>:
  4014e3:	55                   	push   %rbp
  4014e4:	48 89 e5             	mov    %rsp,%rbp
  4014e7:	53                   	push   %rbx
  4014e8:	48 83 ec 28          	sub    $0x28,%rsp
  4014ec:	48 89 7d d8          	mov    %rdi,-0x28(%rbp)
  4014f0:	48 89 75 d0          	mov    %rsi,-0x30(%rbp)
  4014f4:	48 8b 45 d8          	mov    -0x28(%rbp),%rax
  4014f8:	ba 02 00 00 00       	mov    $0x2,%edx
  4014fd:	be 00 00 00 00       	mov    $0x0,%esi
  401502:	48 89 c7             	mov    %rax,%rdi
  401505:	e8 76 f9 ff ff       	callq  400e80 <fseek@plt>
  40150a:	83 f8 ff             	cmp    $0xffffffff,%eax
  40150d:	75 39                	jne    401548 <doProfileMerging+0x65>
  40150f:	e8 4c f8 ff ff       	callq  400d60 <__errno_location@plt>
  401514:	8b 00                	mov    (%rax),%eax
  401516:	89 c7                	mov    %eax,%edi
  401518:	e8 63 f8 ff ff       	callq  400d80 <strerror@plt>
  40151d:	48 89 c2             	mov    %rax,%rdx
  401520:	48 8b 05 c1 6a 20 00 	mov    0x206ac1(%rip),%rax        # 607fe8 <stderr@GLIBC_2.2.5>
  401527:	48 8b 00             	mov    (%rax),%rax
  40152a:	48 8d 35 07 3f 00 00 	lea    0x3f07(%rip),%rsi        # 405438 <__llvm_profile_filename.7+0x78>
  401531:	48 89 c7             	mov    %rax,%rdi
  401534:	b8 00 00 00 00       	mov    $0x0,%eax
  401539:	e8 c2 f9 ff ff       	callq  400f00 <fprintf@plt>
  40153e:	b8 ff ff ff ff       	mov    $0xffffffff,%eax
  401543:	e9 c0 01 00 00       	jmpq   401708 <doProfileMerging+0x225>
  401548:	48 8b 45 d8          	mov    -0x28(%rbp),%rax
  40154c:	48 89 c7             	mov    %rax,%rdi
  40154f:	e8 fc f7 ff ff       	callq  400d50 <ftell@plt>
  401554:	48 89 45 e0          	mov    %rax,-0x20(%rbp)
  401558:	48 8b 45 d8          	mov    -0x28(%rbp),%rax
  40155c:	ba 00 00 00 00       	mov    $0x0,%edx
  401561:	be 00 00 00 00       	mov    $0x0,%esi
  401566:	48 89 c7             	mov    %rax,%rdi
  401569:	e8 12 f9 ff ff       	callq  400e80 <fseek@plt>
  40156e:	83 f8 ff             	cmp    $0xffffffff,%eax
  401571:	75 39                	jne    4015ac <doProfileMerging+0xc9>
  401573:	e8 e8 f7 ff ff       	callq  400d60 <__errno_location@plt>
  401578:	8b 00                	mov    (%rax),%eax
  40157a:	89 c7                	mov    %eax,%edi
  40157c:	e8 ff f7 ff ff       	callq  400d80 <strerror@plt>
  401581:	48 89 c2             	mov    %rax,%rdx
  401584:	48 8b 05 5d 6a 20 00 	mov    0x206a5d(%rip),%rax        # 607fe8 <stderr@GLIBC_2.2.5>
  40158b:	48 8b 00             	mov    (%rax),%rax
  40158e:	48 8d 35 f3 3e 00 00 	lea    0x3ef3(%rip),%rsi        # 405488 <__llvm_profile_filename.7+0xc8>
  401595:	48 89 c7             	mov    %rax,%rdi
  401598:	b8 00 00 00 00       	mov    $0x0,%eax
  40159d:	e8 5e f9 ff ff       	callq  400f00 <fprintf@plt>
  4015a2:	b8 ff ff ff ff       	mov    $0xffffffff,%eax
  4015a7:	e9 5c 01 00 00       	jmpq   401708 <doProfileMerging+0x225>
  4015ac:	48 83 7d e0 3f       	cmpq   $0x3f,-0x20(%rbp)
  4015b1:	77 36                	ja     4015e9 <doProfileMerging+0x106>
  4015b3:	48 83 7d e0 00       	cmpq   $0x0,-0x20(%rbp)
  4015b8:	74 25                	je     4015df <doProfileMerging+0xfc>
  4015ba:	48 8b 05 27 6a 20 00 	mov    0x206a27(%rip),%rax        # 607fe8 <stderr@GLIBC_2.2.5>
  4015c1:	48 8b 00             	mov    (%rax),%rax
  4015c4:	48 8d 15 05 3f 00 00 	lea    0x3f05(%rip),%rdx        # 4054d0 <__llvm_profile_filename.7+0x110>
  4015cb:	48 8d 35 26 3f 00 00 	lea    0x3f26(%rip),%rsi        # 4054f8 <__llvm_profile_filename.7+0x138>
  4015d2:	48 89 c7             	mov    %rax,%rdi
  4015d5:	b8 00 00 00 00       	mov    $0x0,%eax
  4015da:	e8 21 f9 ff ff       	callq  400f00 <fprintf@plt>
  4015df:	b8 00 00 00 00       	mov    $0x0,%eax
  4015e4:	e9 1f 01 00 00       	jmpq   401708 <doProfileMerging+0x225>
  4015e9:	48 8b 45 d8          	mov    -0x28(%rbp),%rax
  4015ed:	48 89 c7             	mov    %rax,%rdi
  4015f0:	e8 5b f8 ff ff       	callq  400e50 <fileno@plt>
  4015f5:	89 c2                	mov    %eax,%edx
  4015f7:	48 8b 45 e0          	mov    -0x20(%rbp),%rax
  4015fb:	41 b9 00 00 00 00    	mov    $0x0,%r9d
  401601:	41 89 d0             	mov    %edx,%r8d
  401604:	b9 01 00 00 00       	mov    $0x1,%ecx
  401609:	ba 01 00 00 00       	mov    $0x1,%edx
  40160e:	48 89 c6             	mov    %rax,%rsi
  401611:	bf 00 00 00 00       	mov    $0x0,%edi
  401616:	e8 25 f9 ff ff       	callq  400f40 <mmap@plt>
  40161b:	48 89 45 e8          	mov    %rax,-0x18(%rbp)
  40161f:	48 83 7d e8 ff       	cmpq   $0xffffffffffffffff,-0x18(%rbp)
  401624:	75 39                	jne    40165f <doProfileMerging+0x17c>
  401626:	e8 35 f7 ff ff       	callq  400d60 <__errno_location@plt>
  40162b:	8b 00                	mov    (%rax),%eax
  40162d:	89 c7                	mov    %eax,%edi
  40162f:	e8 4c f7 ff ff       	callq  400d80 <strerror@plt>
  401634:	48 89 c2             	mov    %rax,%rdx
  401637:	48 8b 05 aa 69 20 00 	mov    0x2069aa(%rip),%rax        # 607fe8 <stderr@GLIBC_2.2.5>
  40163e:	48 8b 00             	mov    (%rax),%rax
  401641:	48 8d 35 e8 3e 00 00 	lea    0x3ee8(%rip),%rsi        # 405530 <__llvm_profile_filename.7+0x170>
  401648:	48 89 c7             	mov    %rax,%rdi
  40164b:	b8 00 00 00 00       	mov    $0x0,%eax
  401650:	e8 ab f8 ff ff       	callq  400f00 <fprintf@plt>
  401655:	b8 ff ff ff ff       	mov    $0xffffffff,%eax
  40165a:	e9 a9 00 00 00       	jmpq   401708 <doProfileMerging+0x225>
  40165f:	48 8b 55 e0          	mov    -0x20(%rbp),%rdx
  401663:	48 8b 45 e8          	mov    -0x18(%rbp),%rax
  401667:	48 89 d6             	mov    %rdx,%rsi
  40166a:	48 89 c7             	mov    %rax,%rdi
  40166d:	e8 6d 16 00 00       	callq  402cdf <__llvm_profile_check_compatibility>
  401672:	85 c0                	test   %eax,%eax
  401674:	74 3f                	je     4016b5 <doProfileMerging+0x1d2>
  401676:	48 8b 55 e0          	mov    -0x20(%rbp),%rdx
  40167a:	48 8b 45 e8          	mov    -0x18(%rbp),%rax
  40167e:	48 89 d6             	mov    %rdx,%rsi
  401681:	48 89 c7             	mov    %rax,%rdi
  401684:	e8 57 f7 ff ff       	callq  400de0 <munmap@plt>
  401689:	48 8b 05 58 69 20 00 	mov    0x206958(%rip),%rax        # 607fe8 <stderr@GLIBC_2.2.5>
  401690:	48 8b 00             	mov    (%rax),%rax
  401693:	48 8d 15 de 3e 00 00 	lea    0x3ede(%rip),%rdx        # 405578 <__llvm_profile_filename.7+0x1b8>
  40169a:	48 8d 35 57 3e 00 00 	lea    0x3e57(%rip),%rsi        # 4054f8 <__llvm_profile_filename.7+0x138>
  4016a1:	48 89 c7             	mov    %rax,%rdi
  4016a4:	b8 00 00 00 00       	mov    $0x0,%eax
  4016a9:	e8 52 f8 ff ff       	callq  400f00 <fprintf@plt>
  4016ae:	b8 00 00 00 00       	mov    $0x0,%eax
  4016b3:	eb 53                	jmp    401708 <doProfileMerging+0x225>
  4016b5:	48 8b 55 e0          	mov    -0x20(%rbp),%rdx
  4016b9:	48 8b 45 e8          	mov    -0x18(%rbp),%rax
  4016bd:	48 89 d6             	mov    %rdx,%rsi
  4016c0:	48 89 c7             	mov    %rax,%rdi
  4016c3:	e8 cf 17 00 00       	callq  402e97 <__llvm_profile_merge_from_buffer>
  4016c8:	e8 cd 39 00 00       	callq  40509a <__llvm_profile_get_size_for_buffer>
  4016cd:	48 89 c3             	mov    %rax,%rbx
  4016d0:	48 8b 45 d8          	mov    -0x28(%rbp),%rax
  4016d4:	48 89 c7             	mov    %rax,%rdi
  4016d7:	e8 74 f7 ff ff       	callq  400e50 <fileno@plt>
  4016dc:	48 89 de             	mov    %rbx,%rsi
  4016df:	89 c7                	mov    %eax,%edi
  4016e1:	e8 fa f7 ff ff       	callq  400ee0 <ftruncate@plt>
  4016e6:	48 8b 55 e0          	mov    -0x20(%rbp),%rdx
  4016ea:	48 8b 45 e8          	mov    -0x18(%rbp),%rax
  4016ee:	48 89 d6             	mov    %rdx,%rsi
  4016f1:	48 89 c7             	mov    %rax,%rdi
  4016f4:	e8 e7 f6 ff ff       	callq  400de0 <munmap@plt>
  4016f9:	48 8b 45 d0          	mov    -0x30(%rbp),%rax
  4016fd:	c7 00 01 00 00 00    	movl   $0x1,(%rax)
  401703:	b8 00 00 00 00       	mov    $0x0,%eax
  401708:	48 83 c4 28          	add    $0x28,%rsp
  40170c:	5b                   	pop    %rbx
  40170d:	5d                   	pop    %rbp
  40170e:	c3                   	retq   

000000000040170f <createProfileDir>:
  40170f:	55                   	push   %rbp
  401710:	48 89 e5             	mov    %rsp,%rbp
  401713:	48 83 ec 30          	sub    $0x30,%rsp
  401717:	48 89 7d d8          	mov    %rdi,-0x28(%rbp)
  40171b:	64 48 8b 04 25 28 00 	mov    %fs:0x28,%rax
  401722:	00 00 
  401724:	48 89 45 f8          	mov    %rax,-0x8(%rbp)
  401728:	31 c0                	xor    %eax,%eax
  40172a:	48 8b 45 d8          	mov    -0x28(%rbp),%rax
  40172e:	48 89 c7             	mov    %rax,%rdi
  401731:	e8 6a f6 ff ff       	callq  400da0 <strlen@plt>
  401736:	48 89 45 e8          	mov    %rax,-0x18(%rbp)
  40173a:	48 8b 45 d8          	mov    -0x28(%rbp),%rax
  40173e:	48 89 c7             	mov    %rax,%rdi
  401741:	e8 73 29 00 00       	callq  4040b9 <lprofFindFirstDirSeparator>
  401746:	48 85 c0             	test   %rax,%rax
  401749:	74 66                	je     4017b1 <createProfileDir+0xa2>
  40174b:	48 8b 45 e8          	mov    -0x18(%rbp),%rax
  40174f:	48 83 c0 01          	add    $0x1,%rax
  401753:	48 8d 50 0f          	lea    0xf(%rax),%rdx
  401757:	b8 10 00 00 00       	mov    $0x10,%eax
  40175c:	48 83 e8 01          	sub    $0x1,%rax
  401760:	48 01 d0             	add    %rdx,%rax
  401763:	be 10 00 00 00       	mov    $0x10,%esi
  401768:	ba 00 00 00 00       	mov    $0x0,%edx
  40176d:	48 f7 f6             	div    %rsi
  401770:	48 6b c0 10          	imul   $0x10,%rax,%rax
  401774:	48 29 c4             	sub    %rax,%rsp
  401777:	48 89 e0             	mov    %rsp,%rax
  40177a:	48 83 c0 0f          	add    $0xf,%rax
  40177e:	48 c1 e8 04          	shr    $0x4,%rax
  401782:	48 c1 e0 04          	shl    $0x4,%rax
  401786:	48 89 45 f0          	mov    %rax,-0x10(%rbp)
  40178a:	48 8b 45 e8          	mov    -0x18(%rbp),%rax
  40178e:	48 8d 50 01          	lea    0x1(%rax),%rdx
  401792:	48 8b 4d d8          	mov    -0x28(%rbp),%rcx
  401796:	48 8b 45 f0          	mov    -0x10(%rbp),%rax
  40179a:	48 89 ce             	mov    %rcx,%rsi
  40179d:	48 89 c7             	mov    %rax,%rdi
  4017a0:	e8 1b f6 ff ff       	callq  400dc0 <strncpy@plt>
  4017a5:	48 8b 45 f0          	mov    -0x10(%rbp),%rax
  4017a9:	48 89 c7             	mov    %rax,%rdi
  4017ac:	e8 77 24 00 00       	callq  403c28 <__llvm_profile_recursive_mkdir>
  4017b1:	90                   	nop
  4017b2:	48 8b 45 f8          	mov    -0x8(%rbp),%rax
  4017b6:	64 48 33 04 25 28 00 	xor    %fs:0x28,%rax
  4017bd:	00 00 
  4017bf:	74 05                	je     4017c6 <createProfileDir+0xb7>
  4017c1:	e8 ca f6 ff ff       	callq  400e90 <__stack_chk_fail@plt>
  4017c6:	c9                   	leaveq 
  4017c7:	c3                   	retq   

00000000004017c8 <openFileForMerging>:
  4017c8:	55                   	push   %rbp
  4017c9:	48 89 e5             	mov    %rsp,%rbp
  4017cc:	48 83 ec 20          	sub    $0x20,%rsp
  4017d0:	48 89 7d e8          	mov    %rdi,-0x18(%rbp)
  4017d4:	48 89 75 e0          	mov    %rsi,-0x20(%rbp)
  4017d8:	48 8b 45 e8          	mov    -0x18(%rbp),%rax
  4017dc:	48 89 c7             	mov    %rax,%rdi
  4017df:	e8 2b ff ff ff       	callq  40170f <createProfileDir>
  4017e4:	48 8b 45 e8          	mov    -0x18(%rbp),%rax
  4017e8:	48 89 c7             	mov    %rax,%rdi
  4017eb:	e8 b1 26 00 00       	callq  403ea1 <lprofOpenFileEx>
  4017f0:	48 89 45 f8          	mov    %rax,-0x8(%rbp)
  4017f4:	48 83 7d f8 00       	cmpq   $0x0,-0x8(%rbp)
  4017f9:	75 0a                	jne    401805 <openFileForMerging+0x3d>
  4017fb:	b8 00 00 00 00       	mov    $0x0,%eax
  401800:	e9 a7 00 00 00       	jmpq   4018ac <openFileForMerging+0xe4>
  401805:	48 8b 55 e0          	mov    -0x20(%rbp),%rdx
  401809:	48 8b 45 f8          	mov    -0x8(%rbp),%rax
  40180d:	48 89 d6             	mov    %rdx,%rsi
  401810:	48 89 c7             	mov    %rax,%rdi
  401813:	e8 cb fc ff ff       	callq  4014e3 <doProfileMerging>
  401818:	89 45 f4             	mov    %eax,-0xc(%rbp)
  40181b:	83 7d f4 00          	cmpl   $0x0,-0xc(%rbp)
  40181f:	75 41                	jne    401862 <openFileForMerging+0x9a>
  401821:	48 8b 45 e0          	mov    -0x20(%rbp),%rax
  401825:	8b 00                	mov    (%rax),%eax
  401827:	85 c0                	test   %eax,%eax
  401829:	75 1c                	jne    401847 <openFileForMerging+0x7f>
  40182b:	48 8b 45 f8          	mov    -0x8(%rbp),%rax
  40182f:	48 89 c7             	mov    %rax,%rdi
  401832:	e8 19 f6 ff ff       	callq  400e50 <fileno@plt>
  401837:	be 00 00 00 00       	mov    $0x0,%esi
  40183c:	89 c7                	mov    %eax,%edi
  40183e:	e8 9d f6 ff ff       	callq  400ee0 <ftruncate@plt>
  401843:	85 c0                	test   %eax,%eax
  401845:	75 1b                	jne    401862 <openFileForMerging+0x9a>
  401847:	48 8b 45 f8          	mov    -0x8(%rbp),%rax
  40184b:	ba 00 00 00 00       	mov    $0x0,%edx
  401850:	be 00 00 00 00       	mov    $0x0,%esi
  401855:	48 89 c7             	mov    %rax,%rdi
  401858:	e8 23 f6 ff ff       	callq  400e80 <fseek@plt>
  40185d:	83 f8 ff             	cmp    $0xffffffff,%eax
  401860:	75 46                	jne    4018a8 <openFileForMerging+0xe0>
  401862:	e8 f9 f4 ff ff       	callq  400d60 <__errno_location@plt>
  401867:	8b 00                	mov    (%rax),%eax
  401869:	89 c7                	mov    %eax,%edi
  40186b:	e8 10 f5 ff ff       	callq  400d80 <strerror@plt>
  401870:	48 89 c1             	mov    %rax,%rcx
  401873:	48 8b 05 6e 67 20 00 	mov    0x20676e(%rip),%rax        # 607fe8 <stderr@GLIBC_2.2.5>
  40187a:	48 8b 00             	mov    (%rax),%rax
  40187d:	48 8b 55 e8          	mov    -0x18(%rbp),%rdx
  401881:	48 8d 35 18 3d 00 00 	lea    0x3d18(%rip),%rsi        # 4055a0 <__llvm_profile_filename.7+0x1e0>
  401888:	48 89 c7             	mov    %rax,%rdi
  40188b:	b8 00 00 00 00       	mov    $0x0,%eax
  401890:	e8 6b f6 ff ff       	callq  400f00 <fprintf@plt>
  401895:	48 8b 45 f8          	mov    -0x8(%rbp),%rax
  401899:	48 89 c7             	mov    %rax,%rdi
  40189c:	e8 9f f5 ff ff       	callq  400e40 <fclose@plt>
  4018a1:	b8 00 00 00 00       	mov    $0x0,%eax
  4018a6:	eb 04                	jmp    4018ac <openFileForMerging+0xe4>
  4018a8:	48 8b 45 f8          	mov    -0x8(%rbp),%rax
  4018ac:	c9                   	leaveq 
  4018ad:	c3                   	retq   

00000000004018ae <writeFile>:
  4018ae:	55                   	push   %rbp
  4018af:	48 89 e5             	mov    %rsp,%rbp
  4018b2:	53                   	push   %rbx
  4018b3:	48 83 ec 48          	sub    $0x48,%rsp
  4018b7:	48 89 7d b8          	mov    %rdi,-0x48(%rbp)
  4018bb:	64 48 8b 04 25 28 00 	mov    %fs:0x28,%rax
  4018c2:	00 00 
  4018c4:	48 89 45 e8          	mov    %rax,-0x18(%rbp)
  4018c8:	31 c0                	xor    %eax,%eax
  4018ca:	c7 45 c0 00 00 00 00 	movl   $0x0,-0x40(%rbp)
  4018d1:	48 c7 c0 c0 05 61 00 	mov    $0x6105c0,%rax
  4018d8:	48 c7 c2 85 30 40 00 	mov    $0x403085,%rdx
  4018df:	48 89 10             	mov    %rdx,(%rax)
  4018e2:	b8 00 00 00 00       	mov    $0x0,%eax
  4018e7:	e8 2e f9 ff ff       	callq  40121a <doMerging>
  4018ec:	85 c0                	test   %eax,%eax
  4018ee:	75 19                	jne    401909 <writeFile+0x5b>
  4018f0:	48 8b 45 b8          	mov    -0x48(%rbp),%rax
  4018f4:	48 8d 35 e0 3c 00 00 	lea    0x3ce0(%rip),%rsi        # 4055db <__llvm_profile_filename.7+0x21b>
  4018fb:	48 89 c7             	mov    %rax,%rdi
  4018fe:	e8 9d f5 ff ff       	callq  400ea0 <fopen@plt>
  401903:	48 89 45 c8          	mov    %rax,-0x38(%rbp)
  401907:	eb 17                	jmp    401920 <writeFile+0x72>
  401909:	48 8d 55 c0          	lea    -0x40(%rbp),%rdx
  40190d:	48 8b 45 b8          	mov    -0x48(%rbp),%rax
  401911:	48 89 d6             	mov    %rdx,%rsi
  401914:	48 89 c7             	mov    %rax,%rdi
  401917:	e8 ac fe ff ff       	callq  4017c8 <openFileForMerging>
  40191c:	48 89 45 c8          	mov    %rax,-0x38(%rbp)
  401920:	48 83 7d c8 00       	cmpq   $0x0,-0x38(%rbp)
  401925:	75 07                	jne    40192e <writeFile+0x80>
  401927:	b8 ff ff ff ff       	mov    $0xffffffff,%eax
  40192c:	eb 5e                	jmp    40198c <writeFile+0xde>
  40192e:	48 8b 05 ab 66 20 00 	mov    0x2066ab(%rip),%rax        # 607fe0 <free@GLIBC_2.2.5>
  401935:	48 89 05 e4 ca 20 00 	mov    %rax,0x20cae4(%rip)        # 60e420 <FreeHook>
  40193c:	b8 00 00 00 00       	mov    $0x0,%eax
  401941:	e8 3a fb ff ff       	callq  401480 <setupIOBuffer>
  401946:	48 8b 55 c8          	mov    -0x38(%rbp),%rdx
  40194a:	48 8d 45 d0          	lea    -0x30(%rbp),%rax
  40194e:	48 89 d6             	mov    %rdx,%rsi
  401951:	48 89 c7             	mov    %rax,%rdi
  401954:	e8 7a fa ff ff       	callq  4013d3 <initFileWriter>
  401959:	8b 5d c0             	mov    -0x40(%rbp),%ebx
  40195c:	b8 00 00 00 00       	mov    $0x0,%eax
  401961:	e8 27 37 00 00       	callq  40508d <lprofGetVPDataReader>
  401966:	48 89 c1             	mov    %rax,%rcx
  401969:	48 8d 45 d0          	lea    -0x30(%rbp),%rax
  40196d:	89 da                	mov    %ebx,%edx
  40196f:	48 89 ce             	mov    %rcx,%rsi
  401972:	48 89 c7             	mov    %rax,%rdi
  401975:	e8 60 1f 00 00       	callq  4038da <lprofWriteData>
  40197a:	89 45 c4             	mov    %eax,-0x3c(%rbp)
  40197d:	48 8b 45 c8          	mov    -0x38(%rbp),%rax
  401981:	48 89 c7             	mov    %rax,%rdi
  401984:	e8 b7 f4 ff ff       	callq  400e40 <fclose@plt>
  401989:	8b 45 c4             	mov    -0x3c(%rbp),%eax
  40198c:	48 8b 4d e8          	mov    -0x18(%rbp),%rcx
  401990:	64 48 33 0c 25 28 00 	xor    %fs:0x28,%rcx
  401997:	00 00 
  401999:	74 05                	je     4019a0 <writeFile+0xf2>
  40199b:	e8 f0 f4 ff ff       	callq  400e90 <__stack_chk_fail@plt>
  4019a0:	48 83 c4 48          	add    $0x48,%rsp
  4019a4:	5b                   	pop    %rbx
  4019a5:	5d                   	pop    %rbp
  4019a6:	c3                   	retq   

00000000004019a7 <writeOrderFile>:
  4019a7:	55                   	push   %rbp
  4019a8:	48 89 e5             	mov    %rsp,%rbp
  4019ab:	48 83 ec 30          	sub    $0x30,%rsp
  4019af:	48 89 7d d8          	mov    %rdi,-0x28(%rbp)
  4019b3:	48 8b 45 d8          	mov    -0x28(%rbp),%rax
  4019b7:	48 8d 35 20 3c 00 00 	lea    0x3c20(%rip),%rsi        # 4055de <__llvm_profile_filename.7+0x21e>
  4019be:	48 89 c7             	mov    %rax,%rdi
  4019c1:	e8 da f4 ff ff       	callq  400ea0 <fopen@plt>
  4019c6:	48 89 45 f0          	mov    %rax,-0x10(%rbp)
  4019ca:	48 83 7d f0 00       	cmpq   $0x0,-0x10(%rbp)
  4019cf:	75 29                	jne    4019fa <writeOrderFile+0x53>
  4019d1:	48 8b 05 10 66 20 00 	mov    0x206610(%rip),%rax        # 607fe8 <stderr@GLIBC_2.2.5>
  4019d8:	48 8b 00             	mov    (%rax),%rax
  4019db:	48 8b 55 d8          	mov    -0x28(%rbp),%rdx
  4019df:	48 8d 35 fa 3b 00 00 	lea    0x3bfa(%rip),%rsi        # 4055e0 <__llvm_profile_filename.7+0x220>
  4019e6:	48 89 c7             	mov    %rax,%rdi
  4019e9:	b8 00 00 00 00       	mov    $0x0,%eax
  4019ee:	e8 0d f5 ff ff       	callq  400f00 <fprintf@plt>
  4019f3:	b8 ff ff ff ff       	mov    $0xffffffff,%eax
  4019f8:	eb 4b                	jmp    401a45 <writeOrderFile+0x9e>
  4019fa:	48 8b 05 df 65 20 00 	mov    0x2065df(%rip),%rax        # 607fe0 <free@GLIBC_2.2.5>
  401a01:	48 89 05 18 ca 20 00 	mov    %rax,0x20ca18(%rip)        # 60e420 <FreeHook>
  401a08:	b8 00 00 00 00       	mov    $0x0,%eax
  401a0d:	e8 6e fa ff ff       	callq  401480 <setupIOBuffer>
  401a12:	b8 00 00 00 00       	mov    $0x0,%eax
  401a17:	e8 e5 21 00 00       	callq  403c01 <__llvm_profile_begin_orderfile>
  401a1c:	48 89 45 f8          	mov    %rax,-0x8(%rbp)
  401a20:	48 8b 55 f8          	mov    -0x8(%rbp),%rdx
  401a24:	48 8b 45 f0          	mov    -0x10(%rbp),%rax
  401a28:	48 89 d6             	mov    %rdx,%rsi
  401a2b:	48 89 c7             	mov    %rax,%rdi
  401a2e:	e8 5d f9 ff ff       	callq  401390 <orderFileWriter>
  401a33:	89 45 ec             	mov    %eax,-0x14(%rbp)
  401a36:	48 8b 45 f0          	mov    -0x10(%rbp),%rax
  401a3a:	48 89 c7             	mov    %rax,%rdi
  401a3d:	e8 fe f3 ff ff       	callq  400e40 <fclose@plt>
  401a42:	8b 45 ec             	mov    -0x14(%rbp),%eax
  401a45:	c9                   	leaveq 
  401a46:	c3                   	retq   

0000000000401a47 <truncateCurrentFile>:
  401a47:	55                   	push   %rbp
  401a48:	48 89 e5             	mov    %rsp,%rbp
  401a4b:	48 83 ec 30          	sub    $0x30,%rsp
  401a4f:	64 48 8b 04 25 28 00 	mov    %fs:0x28,%rax
  401a56:	00 00 
  401a58:	48 89 45 f8          	mov    %rax,-0x8(%rbp)
  401a5c:	31 c0                	xor    %eax,%eax
  401a5e:	b8 00 00 00 00       	mov    $0x0,%eax
  401a63:	e8 1c 06 00 00       	callq  402084 <getCurFilenameLength>
  401a68:	89 45 dc             	mov    %eax,-0x24(%rbp)
  401a6b:	8b 45 dc             	mov    -0x24(%rbp),%eax
  401a6e:	83 c0 01             	add    $0x1,%eax
  401a71:	48 98                	cltq   
  401a73:	48 8d 50 0f          	lea    0xf(%rax),%rdx
  401a77:	b8 10 00 00 00       	mov    $0x10,%eax
  401a7c:	48 83 e8 01          	sub    $0x1,%rax
  401a80:	48 01 d0             	add    %rdx,%rax
  401a83:	b9 10 00 00 00       	mov    $0x10,%ecx
  401a88:	ba 00 00 00 00       	mov    $0x0,%edx
  401a8d:	48 f7 f1             	div    %rcx
  401a90:	48 6b c0 10          	imul   $0x10,%rax,%rax
  401a94:	48 29 c4             	sub    %rax,%rsp
  401a97:	48 89 e0             	mov    %rsp,%rax
  401a9a:	48 83 c0 0f          	add    $0xf,%rax
  401a9e:	48 c1 e8 04          	shr    $0x4,%rax
  401aa2:	48 c1 e0 04          	shl    $0x4,%rax
  401aa6:	48 89 45 e0          	mov    %rax,-0x20(%rbp)
  401aaa:	48 8b 45 e0          	mov    -0x20(%rbp),%rax
  401aae:	be 00 00 00 00       	mov    $0x0,%esi
  401ab3:	48 89 c7             	mov    %rax,%rdi
  401ab6:	e8 d1 06 00 00       	callq  40218c <getCurFilename>
  401abb:	48 89 45 e8          	mov    %rax,-0x18(%rbp)
  401abf:	48 83 7d e8 00       	cmpq   $0x0,-0x18(%rbp)
  401ac4:	74 49                	je     401b0f <truncateCurrentFile+0xc8>
  401ac6:	48 c7 c0 40 e3 60 00 	mov    $0x60e340,%rax
  401acd:	8b 80 b8 00 00 00    	mov    0xb8(%rax),%eax
  401ad3:	85 c0                	test   %eax,%eax
  401ad5:	75 3b                	jne    401b12 <truncateCurrentFile+0xcb>
  401ad7:	48 8b 45 e8          	mov    -0x18(%rbp),%rax
  401adb:	48 89 c7             	mov    %rax,%rdi
  401ade:	e8 2c fc ff ff       	callq  40170f <createProfileDir>
  401ae3:	48 8b 45 e8          	mov    -0x18(%rbp),%rax
  401ae7:	48 8d 35 f0 3a 00 00 	lea    0x3af0(%rip),%rsi        # 4055de <__llvm_profile_filename.7+0x21e>
  401aee:	48 89 c7             	mov    %rax,%rdi
  401af1:	e8 aa f3 ff ff       	callq  400ea0 <fopen@plt>
  401af6:	48 89 45 f0          	mov    %rax,-0x10(%rbp)
  401afa:	48 83 7d f0 00       	cmpq   $0x0,-0x10(%rbp)
  401aff:	74 14                	je     401b15 <truncateCurrentFile+0xce>
  401b01:	48 8b 45 f0          	mov    -0x10(%rbp),%rax
  401b05:	48 89 c7             	mov    %rax,%rdi
  401b08:	e8 33 f3 ff ff       	callq  400e40 <fclose@plt>
  401b0d:	eb 07                	jmp    401b16 <truncateCurrentFile+0xcf>
  401b0f:	90                   	nop
  401b10:	eb 04                	jmp    401b16 <truncateCurrentFile+0xcf>
  401b12:	90                   	nop
  401b13:	eb 01                	jmp    401b16 <truncateCurrentFile+0xcf>
  401b15:	90                   	nop
  401b16:	48 8b 45 f8          	mov    -0x8(%rbp),%rax
  401b1a:	64 48 33 04 25 28 00 	xor    %fs:0x28,%rax
  401b21:	00 00 
  401b23:	74 05                	je     401b2a <truncateCurrentFile+0xe3>
  401b25:	e8 66 f3 ff ff       	callq  400e90 <__stack_chk_fail@plt>
  401b2a:	c9                   	leaveq 
  401b2b:	c3                   	retq   

0000000000401b2c <resetFilenameToDefault>:
  401b2c:	55                   	push   %rbp
  401b2d:	48 89 e5             	mov    %rsp,%rbp
  401b30:	48 c7 c0 40 e3 60 00 	mov    $0x60e340,%rax
  401b37:	48 8b 00             	mov    (%rax),%rax
  401b3a:	48 85 c0             	test   %rax,%rax
  401b3d:	74 20                	je     401b5f <resetFilenameToDefault+0x33>
  401b3f:	48 c7 c0 40 e3 60 00 	mov    $0x60e340,%rax
  401b46:	8b 40 08             	mov    0x8(%rax),%eax
  401b49:	85 c0                	test   %eax,%eax
  401b4b:	74 12                	je     401b5f <resetFilenameToDefault+0x33>
  401b4d:	48 c7 c0 40 e3 60 00 	mov    $0x60e340,%rax
  401b54:	48 8b 00             	mov    (%rax),%rax
  401b57:	48 89 c7             	mov    %rax,%rdi
  401b5a:	e8 11 f4 ff ff       	callq  400f70 <free@plt>
  401b5f:	ba c0 00 00 00       	mov    $0xc0,%edx
  401b64:	be 00 00 00 00       	mov    $0x0,%esi
  401b69:	48 c7 c0 40 e3 60 00 	mov    $0x60e340,%rax
  401b70:	48 89 c7             	mov    %rax,%rdi
  401b73:	e8 58 f2 ff ff       	callq  400dd0 <memset@plt>
  401b78:	48 8b 15 d1 65 20 00 	mov    0x2065d1(%rip),%rdx        # 608150 <DefaultProfileName>
  401b7f:	48 c7 c0 40 e3 60 00 	mov    $0x60e340,%rax
  401b86:	48 89 10             	mov    %rdx,(%rax)
  401b89:	48 c7 c0 40 e3 60 00 	mov    $0x60e340,%rax
  401b90:	c7 80 bc 00 00 00 01 	movl   $0x1,0xbc(%rax)
  401b97:	00 00 00 
  401b9a:	90                   	nop
  401b9b:	5d                   	pop    %rbp
  401b9c:	c3                   	retq   

0000000000401b9d <containsMergeSpecifier>:
  401b9d:	55                   	push   %rbp
  401b9e:	48 89 e5             	mov    %rsp,%rbp
  401ba1:	48 89 7d f8          	mov    %rdi,-0x8(%rbp)
  401ba5:	89 75 f4             	mov    %esi,-0xc(%rbp)
  401ba8:	8b 45 f4             	mov    -0xc(%rbp),%eax
  401bab:	48 63 d0             	movslq %eax,%rdx
  401bae:	48 8b 45 f8          	mov    -0x8(%rbp),%rax
  401bb2:	48 01 d0             	add    %rdx,%rax
  401bb5:	0f b6 00             	movzbl (%rax),%eax
  401bb8:	3c 6d                	cmp    $0x6d,%al
  401bba:	74 3f                	je     401bfb <containsMergeSpecifier+0x5e>
  401bbc:	8b 45 f4             	mov    -0xc(%rbp),%eax
  401bbf:	48 63 d0             	movslq %eax,%rdx
  401bc2:	48 8b 45 f8          	mov    -0x8(%rbp),%rax
  401bc6:	48 01 d0             	add    %rdx,%rax
  401bc9:	0f b6 00             	movzbl (%rax),%eax
  401bcc:	3c 30                	cmp    $0x30,%al
  401bce:	7e 32                	jle    401c02 <containsMergeSpecifier+0x65>
  401bd0:	8b 45 f4             	mov    -0xc(%rbp),%eax
  401bd3:	48 63 d0             	movslq %eax,%rdx
  401bd6:	48 8b 45 f8          	mov    -0x8(%rbp),%rax
  401bda:	48 01 d0             	add    %rdx,%rax
  401bdd:	0f b6 00             	movzbl (%rax),%eax
  401be0:	3c 39                	cmp    $0x39,%al
  401be2:	7f 1e                	jg     401c02 <containsMergeSpecifier+0x65>
  401be4:	8b 45 f4             	mov    -0xc(%rbp),%eax
  401be7:	48 98                	cltq   
  401be9:	48 8d 50 01          	lea    0x1(%rax),%rdx
  401bed:	48 8b 45 f8          	mov    -0x8(%rbp),%rax
  401bf1:	48 01 d0             	add    %rdx,%rax
  401bf4:	0f b6 00             	movzbl (%rax),%eax
  401bf7:	3c 6d                	cmp    $0x6d,%al
  401bf9:	75 07                	jne    401c02 <containsMergeSpecifier+0x65>
  401bfb:	b8 01 00 00 00       	mov    $0x1,%eax
  401c00:	eb 05                	jmp    401c07 <containsMergeSpecifier+0x6a>
  401c02:	b8 00 00 00 00       	mov    $0x0,%eax
  401c07:	5d                   	pop    %rbp
  401c08:	c3                   	retq   

0000000000401c09 <parseFilenamePattern>:
  401c09:	55                   	push   %rbp
  401c0a:	48 89 e5             	mov    %rsp,%rbp
  401c0d:	48 83 ec 30          	sub    $0x30,%rsp
  401c11:	48 89 7d d8          	mov    %rdi,-0x28(%rbp)
  401c15:	89 75 d4             	mov    %esi,-0x2c(%rbp)
  401c18:	c7 45 e0 00 00 00 00 	movl   $0x0,-0x20(%rbp)
  401c1f:	c7 45 e4 00 00 00 00 	movl   $0x0,-0x1c(%rbp)
  401c26:	48 c7 c0 40 e3 60 00 	mov    $0x60e340,%rax
  401c2d:	48 8d 40 20          	lea    0x20(%rax),%rax
  401c31:	48 89 45 f0          	mov    %rax,-0x10(%rbp)
  401c35:	48 c7 c0 40 e3 60 00 	mov    $0x60e340,%rax
  401c3c:	48 8d 40 30          	lea    0x30(%rax),%rax
  401c40:	48 89 45 f8          	mov    %rax,-0x8(%rbp)
  401c44:	c7 45 ec 00 00 00 00 	movl   $0x0,-0x14(%rbp)
  401c4b:	48 c7 c0 40 e3 60 00 	mov    $0x60e340,%rax
  401c52:	48 8b 40 10          	mov    0x10(%rax),%rax
  401c56:	48 85 c0             	test   %rax,%rax
  401c59:	74 13                	je     401c6e <parseFilenamePattern+0x65>
  401c5b:	48 c7 c0 40 e3 60 00 	mov    $0x60e340,%rax
  401c62:	48 8b 40 10          	mov    0x10(%rax),%rax
  401c66:	48 89 c7             	mov    %rax,%rdi
  401c69:	e8 02 f3 ff ff       	callq  400f70 <free@plt>
  401c6e:	48 c7 c0 40 e3 60 00 	mov    $0x60e340,%rax
  401c75:	48 8b 40 18          	mov    0x18(%rax),%rax
  401c79:	48 85 c0             	test   %rax,%rax
  401c7c:	74 13                	je     401c91 <parseFilenamePattern+0x88>
  401c7e:	48 c7 c0 40 e3 60 00 	mov    $0x60e340,%rax
  401c85:	48 8b 40 18          	mov    0x18(%rax),%rax
  401c89:	48 89 c7             	mov    %rax,%rdi
  401c8c:	e8 df f2 ff ff       	callq  400f70 <free@plt>
  401c91:	48 c7 c0 40 e3 60 00 	mov    $0x60e340,%rax
  401c98:	48 8b 00             	mov    (%rax),%rax
  401c9b:	48 85 c0             	test   %rax,%rax
  401c9e:	74 20                	je     401cc0 <parseFilenamePattern+0xb7>
  401ca0:	48 c7 c0 40 e3 60 00 	mov    $0x60e340,%rax
  401ca7:	8b 40 08             	mov    0x8(%rax),%eax
  401caa:	85 c0                	test   %eax,%eax
  401cac:	74 12                	je     401cc0 <parseFilenamePattern+0xb7>
  401cae:	48 c7 c0 40 e3 60 00 	mov    $0x60e340,%rax
  401cb5:	48 8b 00             	mov    (%rax),%rax
  401cb8:	48 89 c7             	mov    %rax,%rdi
  401cbb:	e8 b0 f2 ff ff       	callq  400f70 <free@plt>
  401cc0:	ba c0 00 00 00       	mov    $0xc0,%edx
  401cc5:	be 00 00 00 00       	mov    $0x0,%esi
  401cca:	48 c7 c0 40 e3 60 00 	mov    $0x60e340,%rax
  401cd1:	48 89 c7             	mov    %rax,%rdi
  401cd4:	e8 f7 f0 ff ff       	callq  400dd0 <memset@plt>
  401cd9:	83 7d d4 00          	cmpl   $0x0,-0x2c(%rbp)
  401cdd:	75 10                	jne    401cef <parseFilenamePattern+0xe6>
  401cdf:	48 c7 c0 40 e3 60 00 	mov    $0x60e340,%rax
  401ce6:	48 8b 55 d8          	mov    -0x28(%rbp),%rdx
  401cea:	48 89 10             	mov    %rdx,(%rax)
  401ced:	eb 27                	jmp    401d16 <parseFilenamePattern+0x10d>
  401cef:	48 8b 45 d8          	mov    -0x28(%rbp),%rax
  401cf3:	48 89 c7             	mov    %rax,%rdi
  401cf6:	e8 55 f2 ff ff       	callq  400f50 <strdup@plt>
  401cfb:	48 89 c2             	mov    %rax,%rdx
  401cfe:	48 c7 c0 40 e3 60 00 	mov    $0x60e340,%rax
  401d05:	48 89 10             	mov    %rdx,(%rax)
  401d08:	48 c7 c0 40 e3 60 00 	mov    $0x60e340,%rax
  401d0f:	c7 40 08 01 00 00 00 	movl   $0x1,0x8(%rax)
  401d16:	c7 45 e8 00 00 00 00 	movl   $0x0,-0x18(%rbp)
  401d1d:	e9 ad 01 00 00       	jmpq   401ecf <parseFilenamePattern+0x2c6>
  401d22:	8b 45 e8             	mov    -0x18(%rbp),%eax
  401d25:	48 63 d0             	movslq %eax,%rdx
  401d28:	48 8b 45 d8          	mov    -0x28(%rbp),%rax
  401d2c:	48 01 d0             	add    %rdx,%rax
  401d2f:	0f b6 00             	movzbl (%rax),%eax
  401d32:	3c 25                	cmp    $0x25,%al
  401d34:	0f 85 91 01 00 00    	jne    401ecb <parseFilenamePattern+0x2c2>
  401d3a:	83 45 e8 01          	addl   $0x1,-0x18(%rbp)
  401d3e:	8b 45 e8             	mov    -0x18(%rbp),%eax
  401d41:	48 63 d0             	movslq %eax,%rdx
  401d44:	48 8b 45 d8          	mov    -0x28(%rbp),%rax
  401d48:	48 01 d0             	add    %rdx,%rax
  401d4b:	0f b6 00             	movzbl (%rax),%eax
  401d4e:	3c 70                	cmp    $0x70,%al
  401d50:	75 6d                	jne    401dbf <parseFilenamePattern+0x1b6>
  401d52:	8b 45 e0             	mov    -0x20(%rbp),%eax
  401d55:	8d 50 01             	lea    0x1(%rax),%edx
  401d58:	89 55 e0             	mov    %edx,-0x20(%rbp)
  401d5b:	85 c0                	test   %eax,%eax
  401d5d:	0f 85 68 01 00 00    	jne    401ecb <parseFilenamePattern+0x2c2>
  401d63:	e8 a8 f1 ff ff       	callq  400f10 <getpid@plt>
  401d68:	48 63 d0             	movslq %eax,%rdx
  401d6b:	48 8b 45 f0          	mov    -0x10(%rbp),%rax
  401d6f:	48 89 d1             	mov    %rdx,%rcx
  401d72:	48 8d 15 af 38 00 00 	lea    0x38af(%rip),%rdx        # 405628 <__llvm_profile_filename.7+0x268>
  401d79:	be 10 00 00 00       	mov    $0x10,%esi
  401d7e:	48 89 c7             	mov    %rax,%rdi
  401d81:	b8 00 00 00 00       	mov    $0x0,%eax
  401d86:	e8 a5 f1 ff ff       	callq  400f30 <snprintf@plt>
  401d8b:	85 c0                	test   %eax,%eax
  401d8d:	0f 8f 38 01 00 00    	jg     401ecb <parseFilenamePattern+0x2c2>
  401d93:	48 8b 05 4e 62 20 00 	mov    0x20624e(%rip),%rax        # 607fe8 <stderr@GLIBC_2.2.5>
  401d9a:	48 8b 00             	mov    (%rax),%rax
  401d9d:	48 8b 55 d8          	mov    -0x28(%rbp),%rdx
  401da1:	48 8d 35 88 38 00 00 	lea    0x3888(%rip),%rsi        # 405630 <__llvm_profile_filename.7+0x270>
  401da8:	48 89 c7             	mov    %rax,%rdi
  401dab:	b8 00 00 00 00       	mov    $0x0,%eax
  401db0:	e8 4b f1 ff ff       	callq  400f00 <fprintf@plt>
  401db5:	b8 ff ff ff ff       	mov    $0xffffffff,%eax
  401dba:	e9 4d 01 00 00       	jmpq   401f0c <parseFilenamePattern+0x303>
  401dbf:	8b 45 e8             	mov    -0x18(%rbp),%eax
  401dc2:	48 63 d0             	movslq %eax,%rdx
  401dc5:	48 8b 45 d8          	mov    -0x28(%rbp),%rax
  401dc9:	48 01 d0             	add    %rdx,%rax
  401dcc:	0f b6 00             	movzbl (%rax),%eax
  401dcf:	3c 68                	cmp    $0x68,%al
  401dd1:	75 56                	jne    401e29 <parseFilenamePattern+0x220>
  401dd3:	8b 45 e4             	mov    -0x1c(%rbp),%eax
  401dd6:	8d 50 01             	lea    0x1(%rax),%edx
  401dd9:	89 55 e4             	mov    %edx,-0x1c(%rbp)
  401ddc:	85 c0                	test   %eax,%eax
  401dde:	0f 85 e7 00 00 00    	jne    401ecb <parseFilenamePattern+0x2c2>
  401de4:	48 8b 45 f8          	mov    -0x8(%rbp),%rax
  401de8:	be 80 00 00 00       	mov    $0x80,%esi
  401ded:	48 89 c7             	mov    %rax,%rdi
  401df0:	e8 ea 1e 00 00       	callq  403cdf <lprofGetHostName>
  401df5:	85 c0                	test   %eax,%eax
  401df7:	0f 84 ce 00 00 00    	je     401ecb <parseFilenamePattern+0x2c2>
  401dfd:	48 8b 05 e4 61 20 00 	mov    0x2061e4(%rip),%rax        # 607fe8 <stderr@GLIBC_2.2.5>
  401e04:	48 8b 00             	mov    (%rax),%rax
  401e07:	48 8b 55 d8          	mov    -0x28(%rbp),%rdx
  401e0b:	48 8d 35 7e 38 00 00 	lea    0x387e(%rip),%rsi        # 405690 <__llvm_profile_filename.7+0x2d0>
  401e12:	48 89 c7             	mov    %rax,%rdi
  401e15:	b8 00 00 00 00       	mov    $0x0,%eax
  401e1a:	e8 e1 f0 ff ff       	callq  400f00 <fprintf@plt>
  401e1f:	b8 ff ff ff ff       	mov    $0xffffffff,%eax
  401e24:	e9 e3 00 00 00       	jmpq   401f0c <parseFilenamePattern+0x303>
  401e29:	8b 55 e8             	mov    -0x18(%rbp),%edx
  401e2c:	48 8b 45 d8          	mov    -0x28(%rbp),%rax
  401e30:	89 d6                	mov    %edx,%esi
  401e32:	48 89 c7             	mov    %rax,%rdi
  401e35:	e8 63 fd ff ff       	callq  401b9d <containsMergeSpecifier>
  401e3a:	85 c0                	test   %eax,%eax
  401e3c:	0f 84 89 00 00 00    	je     401ecb <parseFilenamePattern+0x2c2>
  401e42:	83 7d ec 00          	cmpl   $0x0,-0x14(%rbp)
  401e46:	74 2c                	je     401e74 <parseFilenamePattern+0x26b>
  401e48:	48 8b 05 99 61 20 00 	mov    0x206199(%rip),%rax        # 607fe8 <stderr@GLIBC_2.2.5>
  401e4f:	48 8b 00             	mov    (%rax),%rax
  401e52:	48 8b 55 d8          	mov    -0x28(%rbp),%rdx
  401e56:	48 8d 35 93 38 00 00 	lea    0x3893(%rip),%rsi        # 4056f0 <__llvm_profile_filename.7+0x330>
  401e5d:	48 89 c7             	mov    %rax,%rdi
  401e60:	b8 00 00 00 00       	mov    $0x0,%eax
  401e65:	e8 96 f0 ff ff       	callq  400f00 <fprintf@plt>
  401e6a:	b8 ff ff ff ff       	mov    $0xffffffff,%eax
  401e6f:	e9 98 00 00 00       	jmpq   401f0c <parseFilenamePattern+0x303>
  401e74:	c7 45 ec 01 00 00 00 	movl   $0x1,-0x14(%rbp)
  401e7b:	8b 45 e8             	mov    -0x18(%rbp),%eax
  401e7e:	48 63 d0             	movslq %eax,%rdx
  401e81:	48 8b 45 d8          	mov    -0x28(%rbp),%rax
  401e85:	48 01 d0             	add    %rdx,%rax
  401e88:	0f b6 00             	movzbl (%rax),%eax
  401e8b:	3c 6d                	cmp    $0x6d,%al
  401e8d:	75 13                	jne    401ea2 <parseFilenamePattern+0x299>
  401e8f:	48 c7 c0 40 e3 60 00 	mov    $0x60e340,%rax
  401e96:	c7 80 b8 00 00 00 01 	movl   $0x1,0xb8(%rax)
  401e9d:	00 00 00 
  401ea0:	eb 29                	jmp    401ecb <parseFilenamePattern+0x2c2>
  401ea2:	8b 45 e8             	mov    -0x18(%rbp),%eax
  401ea5:	48 63 d0             	movslq %eax,%rdx
  401ea8:	48 8b 45 d8          	mov    -0x28(%rbp),%rax
  401eac:	48 01 d0             	add    %rdx,%rax
  401eaf:	0f b6 00             	movzbl (%rax),%eax
  401eb2:	0f be c0             	movsbl %al,%eax
  401eb5:	83 e8 30             	sub    $0x30,%eax
  401eb8:	89 c2                	mov    %eax,%edx
  401eba:	48 c7 c0 40 e3 60 00 	mov    $0x60e340,%rax
  401ec1:	89 90 b8 00 00 00    	mov    %edx,0xb8(%rax)
  401ec7:	83 45 e8 01          	addl   $0x1,-0x18(%rbp)
  401ecb:	83 45 e8 01          	addl   $0x1,-0x18(%rbp)
  401ecf:	8b 45 e8             	mov    -0x18(%rbp),%eax
  401ed2:	48 63 d0             	movslq %eax,%rdx
  401ed5:	48 8b 45 d8          	mov    -0x28(%rbp),%rax
  401ed9:	48 01 d0             	add    %rdx,%rax
  401edc:	0f b6 00             	movzbl (%rax),%eax
  401edf:	84 c0                	test   %al,%al
  401ee1:	0f 85 3b fe ff ff    	jne    401d22 <parseFilenamePattern+0x119>
  401ee7:	8b 55 e0             	mov    -0x20(%rbp),%edx
  401eea:	48 c7 c0 40 e3 60 00 	mov    $0x60e340,%rax
  401ef1:	89 90 b0 00 00 00    	mov    %edx,0xb0(%rax)
  401ef7:	8b 55 e4             	mov    -0x1c(%rbp),%edx
  401efa:	48 c7 c0 40 e3 60 00 	mov    $0x60e340,%rax
  401f01:	89 90 b4 00 00 00    	mov    %edx,0xb4(%rax)
  401f07:	b8 00 00 00 00       	mov    $0x0,%eax
  401f0c:	c9                   	leaveq 
  401f0d:	c3                   	retq   

0000000000401f0e <parseAndSetFilename>:
  401f0e:	55                   	push   %rbp
  401f0f:	48 89 e5             	mov    %rsp,%rbp
  401f12:	41 54                	push   %r12
  401f14:	53                   	push   %rbx
  401f15:	48 83 ec 20          	sub    $0x20,%rsp
  401f19:	48 89 7d d8          	mov    %rdi,-0x28(%rbp)
  401f1d:	89 75 d4             	mov    %esi,-0x2c(%rbp)
  401f20:	89 55 d0             	mov    %edx,-0x30(%rbp)
  401f23:	48 c7 c0 40 e3 60 00 	mov    $0x60e340,%rax
  401f2a:	48 8b 00             	mov    (%rax),%rax
  401f2d:	48 89 45 e8          	mov    %rax,-0x18(%rbp)
  401f31:	48 c7 c0 40 e3 60 00 	mov    $0x60e340,%rax
  401f38:	8b 80 bc 00 00 00    	mov    0xbc(%rax),%eax
  401f3e:	89 45 e4             	mov    %eax,-0x1c(%rbp)
  401f41:	8b 45 d4             	mov    -0x2c(%rbp),%eax
  401f44:	3b 45 e4             	cmp    -0x1c(%rbp),%eax
  401f47:	0f 82 2d 01 00 00    	jb     40207a <parseAndSetFilename+0x16c>
  401f4d:	48 83 7d d8 00       	cmpq   $0x0,-0x28(%rbp)
  401f52:	75 0b                	jne    401f5f <parseAndSetFilename+0x51>
  401f54:	48 8b 05 f5 61 20 00 	mov    0x2061f5(%rip),%rax        # 608150 <DefaultProfileName>
  401f5b:	48 89 45 d8          	mov    %rax,-0x28(%rbp)
  401f5f:	48 83 7d e8 00       	cmpq   $0x0,-0x18(%rbp)
  401f64:	74 2c                	je     401f92 <parseAndSetFilename+0x84>
  401f66:	48 8b 55 d8          	mov    -0x28(%rbp),%rdx
  401f6a:	48 8b 45 e8          	mov    -0x18(%rbp),%rax
  401f6e:	48 89 d6             	mov    %rdx,%rsi
  401f71:	48 89 c7             	mov    %rax,%rdi
  401f74:	e8 77 ef ff ff       	callq  400ef0 <strcmp@plt>
  401f79:	85 c0                	test   %eax,%eax
  401f7b:	75 15                	jne    401f92 <parseAndSetFilename+0x84>
  401f7d:	48 c7 c0 40 e3 60 00 	mov    $0x60e340,%rax
  401f84:	8b 55 d4             	mov    -0x2c(%rbp),%edx
  401f87:	89 90 bc 00 00 00    	mov    %edx,0xbc(%rax)
  401f8d:	e9 e9 00 00 00       	jmpq   40207b <parseAndSetFilename+0x16d>
  401f92:	48 83 7d d8 00       	cmpq   $0x0,-0x28(%rbp)
  401f97:	74 15                	je     401fae <parseAndSetFilename+0xa0>
  401f99:	8b 55 d0             	mov    -0x30(%rbp),%edx
  401f9c:	48 8b 45 d8          	mov    -0x28(%rbp),%rax
  401fa0:	89 d6                	mov    %edx,%esi
  401fa2:	48 89 c7             	mov    %rax,%rdi
  401fa5:	e8 5f fc ff ff       	callq  401c09 <parseFilenamePattern>
  401faa:	85 c0                	test   %eax,%eax
  401fac:	74 05                	je     401fb3 <parseAndSetFilename+0xa5>
  401fae:	e8 79 fb ff ff       	callq  401b2c <resetFilenameToDefault>
  401fb3:	48 c7 c0 40 e3 60 00 	mov    $0x60e340,%rax
  401fba:	8b 55 d4             	mov    -0x2c(%rbp),%edx
  401fbd:	89 90 bc 00 00 00    	mov    %edx,0xbc(%rax)
  401fc3:	48 83 7d e8 00       	cmpq   $0x0,-0x18(%rbp)
  401fc8:	75 4c                	jne    402016 <parseAndSetFilename+0x108>
  401fca:	48 8d 3d 66 37 00 00 	lea    0x3766(%rip),%rdi        # 405737 <__llvm_profile_filename.7+0x377>
  401fd1:	e8 da ee ff ff       	callq  400eb0 <getenv@plt>
  401fd6:	48 85 c0             	test   %rax,%rax
  401fd9:	0f 84 94 00 00 00    	je     402073 <parseAndSetFilename+0x165>
  401fdf:	8b 45 d4             	mov    -0x2c(%rbp),%eax
  401fe2:	89 c7                	mov    %eax,%edi
  401fe4:	e8 dd f1 ff ff       	callq  4011c6 <getPNSStr>
  401fe9:	48 89 c1             	mov    %rax,%rcx
  401fec:	48 c7 c0 40 e3 60 00 	mov    $0x60e340,%rax
  401ff3:	48 8b 10             	mov    (%rax),%rdx
  401ff6:	48 8b 05 eb 5f 20 00 	mov    0x205feb(%rip),%rax        # 607fe8 <stderr@GLIBC_2.2.5>
  401ffd:	48 8b 00             	mov    (%rax),%rax
  402000:	48 8d 35 49 37 00 00 	lea    0x3749(%rip),%rsi        # 405750 <__llvm_profile_filename.7+0x390>
  402007:	48 89 c7             	mov    %rax,%rdi
  40200a:	b8 00 00 00 00       	mov    $0x0,%eax
  40200f:	e8 ec ee ff ff       	callq  400f00 <fprintf@plt>
  402014:	eb 5d                	jmp    402073 <parseAndSetFilename+0x165>
  402016:	48 8d 3d 1a 37 00 00 	lea    0x371a(%rip),%rdi        # 405737 <__llvm_profile_filename.7+0x377>
  40201d:	e8 8e ee ff ff       	callq  400eb0 <getenv@plt>
  402022:	48 85 c0             	test   %rax,%rax
  402025:	74 4c                	je     402073 <parseAndSetFilename+0x165>
  402027:	8b 45 d4             	mov    -0x2c(%rbp),%eax
  40202a:	89 c7                	mov    %eax,%edi
  40202c:	e8 95 f1 ff ff       	callq  4011c6 <getPNSStr>
  402031:	49 89 c4             	mov    %rax,%r12
  402034:	48 c7 c0 40 e3 60 00 	mov    $0x60e340,%rax
  40203b:	48 8b 18             	mov    (%rax),%rbx
  40203e:	8b 45 e4             	mov    -0x1c(%rbp),%eax
  402041:	89 c7                	mov    %eax,%edi
  402043:	e8 7e f1 ff ff       	callq  4011c6 <getPNSStr>
  402048:	48 89 c1             	mov    %rax,%rcx
  40204b:	48 8b 05 96 5f 20 00 	mov    0x205f96(%rip),%rax        # 607fe8 <stderr@GLIBC_2.2.5>
  402052:	48 8b 00             	mov    (%rax),%rax
  402055:	48 8b 55 e8          	mov    -0x18(%rbp),%rdx
  402059:	4d 89 e1             	mov    %r12,%r9
  40205c:	49 89 d8             	mov    %rbx,%r8
  40205f:	48 8d 35 2a 37 00 00 	lea    0x372a(%rip),%rsi        # 405790 <__llvm_profile_filename.7+0x3d0>
  402066:	48 89 c7             	mov    %rax,%rdi
  402069:	b8 00 00 00 00       	mov    $0x0,%eax
  40206e:	e8 8d ee ff ff       	callq  400f00 <fprintf@plt>
  402073:	e8 cf f9 ff ff       	callq  401a47 <truncateCurrentFile>
  402078:	eb 01                	jmp    40207b <parseAndSetFilename+0x16d>
  40207a:	90                   	nop
  40207b:	48 83 c4 20          	add    $0x20,%rsp
  40207f:	5b                   	pop    %rbx
  402080:	41 5c                	pop    %r12
  402082:	5d                   	pop    %rbp
  402083:	c3                   	retq   

0000000000402084 <getCurFilenameLength>:
  402084:	55                   	push   %rbp
  402085:	48 89 e5             	mov    %rsp,%rbp
  402088:	41 55                	push   %r13
  40208a:	41 54                	push   %r12
  40208c:	53                   	push   %rbx
  40208d:	48 83 ec 18          	sub    $0x18,%rsp
  402091:	48 c7 c0 40 e3 60 00 	mov    $0x60e340,%rax
  402098:	48 8b 00             	mov    (%rax),%rax
  40209b:	48 85 c0             	test   %rax,%rax
  40209e:	74 11                	je     4020b1 <getCurFilenameLength+0x2d>
  4020a0:	48 c7 c0 40 e3 60 00 	mov    $0x60e340,%rax
  4020a7:	48 8b 00             	mov    (%rax),%rax
  4020aa:	0f b6 00             	movzbl (%rax),%eax
  4020ad:	84 c0                	test   %al,%al
  4020af:	75 0a                	jne    4020bb <getCurFilenameLength+0x37>
  4020b1:	b8 00 00 00 00       	mov    $0x0,%eax
  4020b6:	e9 c6 00 00 00       	jmpq   402181 <getCurFilenameLength+0xfd>
  4020bb:	48 c7 c0 40 e3 60 00 	mov    $0x60e340,%rax
  4020c2:	8b 80 b0 00 00 00    	mov    0xb0(%rax),%eax
  4020c8:	85 c0                	test   %eax,%eax
  4020ca:	75 36                	jne    402102 <getCurFilenameLength+0x7e>
  4020cc:	48 c7 c0 40 e3 60 00 	mov    $0x60e340,%rax
  4020d3:	8b 80 b4 00 00 00    	mov    0xb4(%rax),%eax
  4020d9:	85 c0                	test   %eax,%eax
  4020db:	75 25                	jne    402102 <getCurFilenameLength+0x7e>
  4020dd:	48 c7 c0 40 e3 60 00 	mov    $0x60e340,%rax
  4020e4:	8b 80 b8 00 00 00    	mov    0xb8(%rax),%eax
  4020ea:	85 c0                	test   %eax,%eax
  4020ec:	75 14                	jne    402102 <getCurFilenameLength+0x7e>
  4020ee:	48 c7 c0 40 e3 60 00 	mov    $0x60e340,%rax
  4020f5:	48 8b 00             	mov    (%rax),%rax
  4020f8:	48 89 c7             	mov    %rax,%rdi
  4020fb:	e8 a0 ec ff ff       	callq  400da0 <strlen@plt>
  402100:	eb 7f                	jmp    402181 <getCurFilenameLength+0xfd>
  402102:	48 c7 c0 40 e3 60 00 	mov    $0x60e340,%rax
  402109:	48 8b 00             	mov    (%rax),%rax
  40210c:	48 89 c7             	mov    %rax,%rdi
  40210f:	e8 8c ec ff ff       	callq  400da0 <strlen@plt>
  402114:	41 89 c5             	mov    %eax,%r13d
  402117:	48 c7 c0 40 e3 60 00 	mov    $0x60e340,%rax
  40211e:	8b 98 b4 00 00 00    	mov    0xb4(%rax),%ebx
  402124:	48 c7 c0 40 e3 60 00 	mov    $0x60e340,%rax
  40212b:	48 8d 78 30          	lea    0x30(%rax),%rdi
  40212f:	e8 6c ec ff ff       	callq  400da0 <strlen@plt>
  402134:	48 83 e8 02          	sub    $0x2,%rax
  402138:	0f af d8             	imul   %eax,%ebx
  40213b:	48 c7 c0 40 e3 60 00 	mov    $0x60e340,%rax
  402142:	44 8b a0 b0 00 00 00 	mov    0xb0(%rax),%r12d
  402149:	48 c7 c0 40 e3 60 00 	mov    $0x60e340,%rax
  402150:	48 8d 78 20          	lea    0x20(%rax),%rdi
  402154:	e8 47 ec ff ff       	callq  400da0 <strlen@plt>
  402159:	48 83 e8 02          	sub    $0x2,%rax
  40215d:	41 0f af c4          	imul   %r12d,%eax
  402161:	01 d8                	add    %ebx,%eax
  402163:	44 01 e8             	add    %r13d,%eax
  402166:	89 45 dc             	mov    %eax,-0x24(%rbp)
  402169:	48 c7 c0 40 e3 60 00 	mov    $0x60e340,%rax
  402170:	8b 80 b8 00 00 00    	mov    0xb8(%rax),%eax
  402176:	85 c0                	test   %eax,%eax
  402178:	74 04                	je     40217e <getCurFilenameLength+0xfa>
  40217a:	83 45 dc 18          	addl   $0x18,-0x24(%rbp)
  40217e:	8b 45 dc             	mov    -0x24(%rbp),%eax
  402181:	48 83 c4 18          	add    $0x18,%rsp
  402185:	5b                   	pop    %rbx
  402186:	41 5c                	pop    %r12
  402188:	41 5d                	pop    %r13
  40218a:	5d                   	pop    %rbp
  40218b:	c3                   	retq   

000000000040218c <getCurFilename>:
  40218c:	55                   	push   %rbp
  40218d:	48 89 e5             	mov    %rsp,%rbp
  402190:	48 83 ec 60          	sub    $0x60,%rsp
  402194:	48 89 7d a8          	mov    %rdi,-0x58(%rbp)
  402198:	89 75 a4             	mov    %esi,-0x5c(%rbp)
  40219b:	64 48 8b 04 25 28 00 	mov    %fs:0x28,%rax
  4021a2:	00 00 
  4021a4:	48 89 45 f8          	mov    %rax,-0x8(%rbp)
  4021a8:	31 c0                	xor    %eax,%eax
  4021aa:	48 c7 c0 40 e3 60 00 	mov    $0x60e340,%rax
  4021b1:	48 8b 00             	mov    (%rax),%rax
  4021b4:	48 89 45 d8          	mov    %rax,-0x28(%rbp)
  4021b8:	48 c7 c0 40 e3 60 00 	mov    $0x60e340,%rax
  4021bf:	48 8b 00             	mov    (%rax),%rax
  4021c2:	48 85 c0             	test   %rax,%rax
  4021c5:	74 11                	je     4021d8 <getCurFilename+0x4c>
  4021c7:	48 c7 c0 40 e3 60 00 	mov    $0x60e340,%rax
  4021ce:	48 8b 00             	mov    (%rax),%rax
  4021d1:	0f b6 00             	movzbl (%rax),%eax
  4021d4:	84 c0                	test   %al,%al
  4021d6:	75 0a                	jne    4021e2 <getCurFilename+0x56>
  4021d8:	b8 00 00 00 00       	mov    $0x0,%eax
  4021dd:	e9 95 02 00 00       	jmpq   402477 <getCurFilename+0x2eb>
  4021e2:	48 c7 c0 40 e3 60 00 	mov    $0x60e340,%rax
  4021e9:	8b 80 b0 00 00 00    	mov    0xb0(%rax),%eax
  4021ef:	85 c0                	test   %eax,%eax
  4021f1:	0f 85 84 00 00 00    	jne    40227b <getCurFilename+0xef>
  4021f7:	48 c7 c0 40 e3 60 00 	mov    $0x60e340,%rax
  4021fe:	8b 80 b4 00 00 00    	mov    0xb4(%rax),%eax
  402204:	85 c0                	test   %eax,%eax
  402206:	75 73                	jne    40227b <getCurFilename+0xef>
  402208:	48 c7 c0 40 e3 60 00 	mov    $0x60e340,%rax
  40220f:	8b 80 b8 00 00 00    	mov    0xb8(%rax),%eax
  402215:	85 c0                	test   %eax,%eax
  402217:	75 62                	jne    40227b <getCurFilename+0xef>
  402219:	83 7d a4 00          	cmpl   $0x0,-0x5c(%rbp)
  40221d:	75 0f                	jne    40222e <getCurFilename+0xa2>
  40221f:	48 c7 c0 40 e3 60 00 	mov    $0x60e340,%rax
  402226:	48 8b 00             	mov    (%rax),%rax
  402229:	e9 49 02 00 00       	jmpq   402477 <getCurFilename+0x2eb>
  40222e:	48 c7 c0 40 e3 60 00 	mov    $0x60e340,%rax
  402235:	48 8b 00             	mov    (%rax),%rax
  402238:	48 89 c7             	mov    %rax,%rdi
  40223b:	e8 60 eb ff ff       	callq  400da0 <strlen@plt>
  402240:	89 45 c8             	mov    %eax,-0x38(%rbp)
  402243:	8b 45 c8             	mov    -0x38(%rbp),%eax
  402246:	48 63 d0             	movslq %eax,%rdx
  402249:	48 c7 c0 40 e3 60 00 	mov    $0x60e340,%rax
  402250:	48 8b 08             	mov    (%rax),%rcx
  402253:	48 8b 45 a8          	mov    -0x58(%rbp),%rax
  402257:	48 89 ce             	mov    %rcx,%rsi
  40225a:	48 89 c7             	mov    %rax,%rdi
  40225d:	e8 be eb ff ff       	callq  400e20 <memcpy@plt>
  402262:	8b 45 c8             	mov    -0x38(%rbp),%eax
  402265:	48 63 d0             	movslq %eax,%rdx
  402268:	48 8b 45 a8          	mov    -0x58(%rbp),%rax
  40226c:	48 01 d0             	add    %rdx,%rax
  40226f:	c6 00 00             	movb   $0x0,(%rax)
  402272:	48 8b 45 a8          	mov    -0x58(%rbp),%rax
  402276:	e9 fc 01 00 00       	jmpq   402477 <getCurFilename+0x2eb>
  40227b:	48 c7 c0 40 e3 60 00 	mov    $0x60e340,%rax
  402282:	48 8d 78 20          	lea    0x20(%rax),%rdi
  402286:	e8 15 eb ff ff       	callq  400da0 <strlen@plt>
  40228b:	89 45 cc             	mov    %eax,-0x34(%rbp)
  40228e:	48 c7 c0 40 e3 60 00 	mov    $0x60e340,%rax
  402295:	48 8d 78 30          	lea    0x30(%rax),%rdi
  402299:	e8 02 eb ff ff       	callq  400da0 <strlen@plt>
  40229e:	89 45 d0             	mov    %eax,-0x30(%rbp)
  4022a1:	c7 45 bc 00 00 00 00 	movl   $0x0,-0x44(%rbp)
  4022a8:	c7 45 c0 00 00 00 00 	movl   $0x0,-0x40(%rbp)
  4022af:	e9 97 01 00 00       	jmpq   40244b <getCurFilename+0x2bf>
  4022b4:	8b 45 bc             	mov    -0x44(%rbp),%eax
  4022b7:	48 63 d0             	movslq %eax,%rdx
  4022ba:	48 8b 45 d8          	mov    -0x28(%rbp),%rax
  4022be:	48 01 d0             	add    %rdx,%rax
  4022c1:	0f b6 00             	movzbl (%rax),%eax
  4022c4:	3c 25                	cmp    $0x25,%al
  4022c6:	0f 85 55 01 00 00    	jne    402421 <getCurFilename+0x295>
  4022cc:	83 45 bc 01          	addl   $0x1,-0x44(%rbp)
  4022d0:	8b 45 bc             	mov    -0x44(%rbp),%eax
  4022d3:	48 63 d0             	movslq %eax,%rdx
  4022d6:	48 8b 45 d8          	mov    -0x28(%rbp),%rax
  4022da:	48 01 d0             	add    %rdx,%rax
  4022dd:	0f b6 00             	movzbl (%rax),%eax
  4022e0:	3c 70                	cmp    $0x70,%al
  4022e2:	75 33                	jne    402317 <getCurFilename+0x18b>
  4022e4:	8b 45 cc             	mov    -0x34(%rbp),%eax
  4022e7:	48 98                	cltq   
  4022e9:	8b 55 c0             	mov    -0x40(%rbp),%edx
  4022ec:	48 63 ca             	movslq %edx,%rcx
  4022ef:	48 8b 55 a8          	mov    -0x58(%rbp),%rdx
  4022f3:	48 01 d1             	add    %rdx,%rcx
  4022f6:	48 89 c2             	mov    %rax,%rdx
  4022f9:	48 c7 c0 40 e3 60 00 	mov    $0x60e340,%rax
  402300:	48 8d 70 20          	lea    0x20(%rax),%rsi
  402304:	48 89 cf             	mov    %rcx,%rdi
  402307:	e8 14 eb ff ff       	callq  400e20 <memcpy@plt>
  40230c:	8b 45 cc             	mov    -0x34(%rbp),%eax
  40230f:	01 45 c0             	add    %eax,-0x40(%rbp)
  402312:	e9 30 01 00 00       	jmpq   402447 <getCurFilename+0x2bb>
  402317:	8b 45 bc             	mov    -0x44(%rbp),%eax
  40231a:	48 63 d0             	movslq %eax,%rdx
  40231d:	48 8b 45 d8          	mov    -0x28(%rbp),%rax
  402321:	48 01 d0             	add    %rdx,%rax
  402324:	0f b6 00             	movzbl (%rax),%eax
  402327:	3c 68                	cmp    $0x68,%al
  402329:	75 33                	jne    40235e <getCurFilename+0x1d2>
  40232b:	8b 45 d0             	mov    -0x30(%rbp),%eax
  40232e:	48 98                	cltq   
  402330:	8b 55 c0             	mov    -0x40(%rbp),%edx
  402333:	48 63 ca             	movslq %edx,%rcx
  402336:	48 8b 55 a8          	mov    -0x58(%rbp),%rdx
  40233a:	48 01 d1             	add    %rdx,%rcx
  40233d:	48 89 c2             	mov    %rax,%rdx
  402340:	48 c7 c0 40 e3 60 00 	mov    $0x60e340,%rax
  402347:	48 8d 70 30          	lea    0x30(%rax),%rsi
  40234b:	48 89 cf             	mov    %rcx,%rdi
  40234e:	e8 cd ea ff ff       	callq  400e20 <memcpy@plt>
  402353:	8b 45 d0             	mov    -0x30(%rbp),%eax
  402356:	01 45 c0             	add    %eax,-0x40(%rbp)
  402359:	e9 e9 00 00 00       	jmpq   402447 <getCurFilename+0x2bb>
  40235e:	8b 55 bc             	mov    -0x44(%rbp),%edx
  402361:	48 8b 45 d8          	mov    -0x28(%rbp),%rax
  402365:	89 d6                	mov    %edx,%esi
  402367:	48 89 c7             	mov    %rax,%rdi
  40236a:	e8 2e f8 ff ff       	callq  401b9d <containsMergeSpecifier>
  40236f:	85 c0                	test   %eax,%eax
  402371:	0f 84 d0 00 00 00    	je     402447 <getCurFilename+0x2bb>
  402377:	e8 94 eb ff ff       	callq  400f10 <getpid@plt>
  40237c:	89 c2                	mov    %eax,%edx
  40237e:	48 c7 c0 40 e3 60 00 	mov    $0x60e340,%rax
  402385:	8b 88 b8 00 00 00    	mov    0xb8(%rax),%ecx
  40238b:	89 d0                	mov    %edx,%eax
  40238d:	ba 00 00 00 00       	mov    $0x0,%edx
  402392:	f7 f1                	div    %ecx
  402394:	89 d0                	mov    %edx,%eax
  402396:	89 45 d4             	mov    %eax,-0x2c(%rbp)
  402399:	b8 00 00 00 00       	mov    $0x0,%eax
  40239e:	e8 5b 08 00 00       	callq  402bfe <lprofGetLoadModuleSignature>
  4023a3:	48 89 c1             	mov    %rax,%rcx
  4023a6:	8b 55 d4             	mov    -0x2c(%rbp),%edx
  4023a9:	48 8d 45 e0          	lea    -0x20(%rbp),%rax
  4023ad:	41 89 d0             	mov    %edx,%r8d
  4023b0:	48 8d 15 23 34 00 00 	lea    0x3423(%rip),%rdx        # 4057da <__llvm_profile_filename.7+0x41a>
  4023b7:	be 18 00 00 00       	mov    $0x18,%esi
  4023bc:	48 89 c7             	mov    %rax,%rdi
  4023bf:	b8 00 00 00 00       	mov    $0x0,%eax
  4023c4:	e8 67 eb ff ff       	callq  400f30 <snprintf@plt>
  4023c9:	89 45 c4             	mov    %eax,-0x3c(%rbp)
  4023cc:	83 7d c4 ff          	cmpl   $0xffffffff,-0x3c(%rbp)
  4023d0:	74 06                	je     4023d8 <getCurFilename+0x24c>
  4023d2:	83 7d c4 18          	cmpl   $0x18,-0x3c(%rbp)
  4023d6:	7e 07                	jle    4023df <getCurFilename+0x253>
  4023d8:	c7 45 c4 18 00 00 00 	movl   $0x18,-0x3c(%rbp)
  4023df:	8b 45 c4             	mov    -0x3c(%rbp),%eax
  4023e2:	48 63 d0             	movslq %eax,%rdx
  4023e5:	8b 45 c0             	mov    -0x40(%rbp),%eax
  4023e8:	48 63 c8             	movslq %eax,%rcx
  4023eb:	48 8b 45 a8          	mov    -0x58(%rbp),%rax
  4023ef:	48 01 c1             	add    %rax,%rcx
  4023f2:	48 8d 45 e0          	lea    -0x20(%rbp),%rax
  4023f6:	48 89 c6             	mov    %rax,%rsi
  4023f9:	48 89 cf             	mov    %rcx,%rdi
  4023fc:	e8 1f ea ff ff       	callq  400e20 <memcpy@plt>
  402401:	8b 45 c4             	mov    -0x3c(%rbp),%eax
  402404:	01 45 c0             	add    %eax,-0x40(%rbp)
  402407:	8b 45 bc             	mov    -0x44(%rbp),%eax
  40240a:	48 63 d0             	movslq %eax,%rdx
  40240d:	48 8b 45 d8          	mov    -0x28(%rbp),%rax
  402411:	48 01 d0             	add    %rdx,%rax
  402414:	0f b6 00             	movzbl (%rax),%eax
  402417:	3c 6d                	cmp    $0x6d,%al
  402419:	74 2c                	je     402447 <getCurFilename+0x2bb>
  40241b:	83 45 bc 01          	addl   $0x1,-0x44(%rbp)
  40241f:	eb 26                	jmp    402447 <getCurFilename+0x2bb>
  402421:	8b 45 bc             	mov    -0x44(%rbp),%eax
  402424:	48 63 d0             	movslq %eax,%rdx
  402427:	48 8b 45 d8          	mov    -0x28(%rbp),%rax
  40242b:	48 8d 0c 02          	lea    (%rdx,%rax,1),%rcx
  40242f:	8b 45 c0             	mov    -0x40(%rbp),%eax
  402432:	8d 50 01             	lea    0x1(%rax),%edx
  402435:	89 55 c0             	mov    %edx,-0x40(%rbp)
  402438:	48 63 d0             	movslq %eax,%rdx
  40243b:	48 8b 45 a8          	mov    -0x58(%rbp),%rax
  40243f:	48 01 c2             	add    %rax,%rdx
  402442:	0f b6 01             	movzbl (%rcx),%eax
  402445:	88 02                	mov    %al,(%rdx)
  402447:	83 45 bc 01          	addl   $0x1,-0x44(%rbp)
  40244b:	8b 45 bc             	mov    -0x44(%rbp),%eax
  40244e:	48 63 d0             	movslq %eax,%rdx
  402451:	48 8b 45 d8          	mov    -0x28(%rbp),%rax
  402455:	48 01 d0             	add    %rdx,%rax
  402458:	0f b6 00             	movzbl (%rax),%eax
  40245b:	84 c0                	test   %al,%al
  40245d:	0f 85 51 fe ff ff    	jne    4022b4 <getCurFilename+0x128>
  402463:	8b 45 c0             	mov    -0x40(%rbp),%eax
  402466:	48 63 d0             	movslq %eax,%rdx
  402469:	48 8b 45 a8          	mov    -0x58(%rbp),%rax
  40246d:	48 01 d0             	add    %rdx,%rax
  402470:	c6 00 00             	movb   $0x0,(%rax)
  402473:	48 8b 45 a8          	mov    -0x58(%rbp),%rax
  402477:	48 8b 75 f8          	mov    -0x8(%rbp),%rsi
  40247b:	64 48 33 34 25 28 00 	xor    %fs:0x28,%rsi
  402482:	00 00 
  402484:	74 05                	je     40248b <getCurFilename+0x2ff>
  402486:	e8 05 ea ff ff       	callq  400e90 <__stack_chk_fail@plt>
  40248b:	c9                   	leaveq 
  40248c:	c3                   	retq   

000000000040248d <getFilenamePatFromEnv>:
  40248d:	55                   	push   %rbp
  40248e:	48 89 e5             	mov    %rsp,%rbp
  402491:	48 83 ec 10          	sub    $0x10,%rsp
  402495:	48 8d 3d 45 33 00 00 	lea    0x3345(%rip),%rdi        # 4057e1 <__llvm_profile_filename.7+0x421>
  40249c:	e8 0f ea ff ff       	callq  400eb0 <getenv@plt>
  4024a1:	48 89 45 f8          	mov    %rax,-0x8(%rbp)
  4024a5:	48 83 7d f8 00       	cmpq   $0x0,-0x8(%rbp)
  4024aa:	74 0b                	je     4024b7 <getFilenamePatFromEnv+0x2a>
  4024ac:	48 8b 45 f8          	mov    -0x8(%rbp),%rax
  4024b0:	0f b6 00             	movzbl (%rax),%eax
  4024b3:	84 c0                	test   %al,%al
  4024b5:	75 07                	jne    4024be <getFilenamePatFromEnv+0x31>
  4024b7:	b8 00 00 00 00       	mov    $0x0,%eax
  4024bc:	eb 04                	jmp    4024c2 <getFilenamePatFromEnv+0x35>
  4024be:	48 8b 45 f8          	mov    -0x8(%rbp),%rax
  4024c2:	c9                   	leaveq 
  4024c3:	c3                   	retq   

00000000004024c4 <__llvm_profile_get_path_prefix>:
  4024c4:	55                   	push   %rbp
  4024c5:	48 89 e5             	mov    %rsp,%rbp
  4024c8:	48 83 ec 30          	sub    $0x30,%rsp
  4024cc:	64 48 8b 04 25 28 00 	mov    %fs:0x28,%rax
  4024d3:	00 00 
  4024d5:	48 89 45 f8          	mov    %rax,-0x8(%rbp)
  4024d9:	31 c0                	xor    %eax,%eax
  4024db:	48 c7 c0 40 e3 60 00 	mov    $0x60e340,%rax
  4024e2:	48 8b 40 10          	mov    0x10(%rax),%rax
  4024e6:	48 85 c0             	test   %rax,%rax
  4024e9:	74 10                	je     4024fb <__llvm_profile_get_path_prefix+0x37>
  4024eb:	48 c7 c0 40 e3 60 00 	mov    $0x60e340,%rax
  4024f2:	48 8b 40 10          	mov    0x10(%rax),%rax
  4024f6:	e9 30 01 00 00       	jmpq   40262b <__llvm_profile_get_path_prefix+0x167>
  4024fb:	b8 00 00 00 00       	mov    $0x0,%eax
  402500:	e8 7f fb ff ff       	callq  402084 <getCurFilenameLength>
  402505:	89 45 d4             	mov    %eax,-0x2c(%rbp)
  402508:	8b 45 d4             	mov    -0x2c(%rbp),%eax
  40250b:	83 c0 01             	add    $0x1,%eax
  40250e:	48 98                	cltq   
  402510:	48 8d 50 0f          	lea    0xf(%rax),%rdx
  402514:	b8 10 00 00 00       	mov    $0x10,%eax
  402519:	48 83 e8 01          	sub    $0x1,%rax
  40251d:	48 01 d0             	add    %rdx,%rax
  402520:	b9 10 00 00 00       	mov    $0x10,%ecx
  402525:	ba 00 00 00 00       	mov    $0x0,%edx
  40252a:	48 f7 f1             	div    %rcx
  40252d:	48 6b c0 10          	imul   $0x10,%rax,%rax
  402531:	48 29 c4             	sub    %rax,%rsp
  402534:	48 89 e0             	mov    %rsp,%rax
  402537:	48 83 c0 0f          	add    $0xf,%rax
  40253b:	48 c1 e8 04          	shr    $0x4,%rax
  40253f:	48 c1 e0 04          	shl    $0x4,%rax
  402543:	48 89 45 d8          	mov    %rax,-0x28(%rbp)
  402547:	48 8b 45 d8          	mov    -0x28(%rbp),%rax
  40254b:	be 00 00 00 00       	mov    $0x0,%esi
  402550:	48 89 c7             	mov    %rax,%rdi
  402553:	e8 34 fc ff ff       	callq  40218c <getCurFilename>
  402558:	48 89 45 e0          	mov    %rax,-0x20(%rbp)
  40255c:	48 83 7d e0 00       	cmpq   $0x0,-0x20(%rbp)
  402561:	75 0c                	jne    40256f <__llvm_profile_get_path_prefix+0xab>
  402563:	48 8d 05 89 32 00 00 	lea    0x3289(%rip),%rax        # 4057f3 <__llvm_profile_filename.7+0x433>
  40256a:	e9 bc 00 00 00       	jmpq   40262b <__llvm_profile_get_path_prefix+0x167>
  40256f:	48 8b 45 e0          	mov    -0x20(%rbp),%rax
  402573:	48 89 c7             	mov    %rax,%rdi
  402576:	e8 65 1b 00 00       	callq  4040e0 <lprofFindLastDirSeparator>
  40257b:	48 89 45 e8          	mov    %rax,-0x18(%rbp)
  40257f:	48 83 7d e8 00       	cmpq   $0x0,-0x18(%rbp)
  402584:	75 0c                	jne    402592 <__llvm_profile_get_path_prefix+0xce>
  402586:	48 8d 05 66 32 00 00 	lea    0x3266(%rip),%rax        # 4057f3 <__llvm_profile_filename.7+0x433>
  40258d:	e9 99 00 00 00       	jmpq   40262b <__llvm_profile_get_path_prefix+0x167>
  402592:	48 8b 55 e8          	mov    -0x18(%rbp),%rdx
  402596:	48 8b 45 e0          	mov    -0x20(%rbp),%rax
  40259a:	48 29 c2             	sub    %rax,%rdx
  40259d:	48 89 d0             	mov    %rdx,%rax
  4025a0:	83 c0 01             	add    $0x1,%eax
  4025a3:	89 45 d4             	mov    %eax,-0x2c(%rbp)
  4025a6:	8b 45 d4             	mov    -0x2c(%rbp),%eax
  4025a9:	83 c0 01             	add    $0x1,%eax
  4025ac:	48 98                	cltq   
  4025ae:	48 89 c7             	mov    %rax,%rdi
  4025b1:	e8 1a e9 ff ff       	callq  400ed0 <malloc@plt>
  4025b6:	48 89 45 f0          	mov    %rax,-0x10(%rbp)
  4025ba:	48 83 7d f0 00       	cmpq   $0x0,-0x10(%rbp)
  4025bf:	75 2e                	jne    4025ef <__llvm_profile_get_path_prefix+0x12b>
  4025c1:	48 8b 05 20 5a 20 00 	mov    0x205a20(%rip),%rax        # 607fe8 <stderr@GLIBC_2.2.5>
  4025c8:	48 8b 00             	mov    (%rax),%rax
  4025cb:	48 8d 15 23 32 00 00 	lea    0x3223(%rip),%rdx        # 4057f5 <__llvm_profile_filename.7+0x435>
  4025d2:	48 8d 35 2f 32 00 00 	lea    0x322f(%rip),%rsi        # 405808 <__llvm_profile_filename.7+0x448>
  4025d9:	48 89 c7             	mov    %rax,%rdi
  4025dc:	b8 00 00 00 00       	mov    $0x0,%eax
  4025e1:	e8 1a e9 ff ff       	callq  400f00 <fprintf@plt>
  4025e6:	48 8d 05 06 32 00 00 	lea    0x3206(%rip),%rax        # 4057f3 <__llvm_profile_filename.7+0x433>
  4025ed:	eb 3c                	jmp    40262b <__llvm_profile_get_path_prefix+0x167>
  4025ef:	8b 45 d4             	mov    -0x2c(%rbp),%eax
  4025f2:	48 63 d0             	movslq %eax,%rdx
  4025f5:	48 8b 4d e0          	mov    -0x20(%rbp),%rcx
  4025f9:	48 8b 45 f0          	mov    -0x10(%rbp),%rax
  4025fd:	48 89 ce             	mov    %rcx,%rsi
  402600:	48 89 c7             	mov    %rax,%rdi
  402603:	e8 18 e8 ff ff       	callq  400e20 <memcpy@plt>
  402608:	8b 45 d4             	mov    -0x2c(%rbp),%eax
  40260b:	48 63 d0             	movslq %eax,%rdx
  40260e:	48 8b 45 f0          	mov    -0x10(%rbp),%rax
  402612:	48 01 d0             	add    %rdx,%rax
  402615:	c6 00 00             	movb   $0x0,(%rax)
  402618:	48 c7 c0 40 e3 60 00 	mov    $0x60e340,%rax
  40261f:	48 8b 55 f0          	mov    -0x10(%rbp),%rdx
  402623:	48 89 50 10          	mov    %rdx,0x10(%rax)
  402627:	48 8b 45 f0          	mov    -0x10(%rbp),%rax
  40262b:	48 8b 4d f8          	mov    -0x8(%rbp),%rcx
  40262f:	64 48 33 0c 25 28 00 	xor    %fs:0x28,%rcx
  402636:	00 00 
  402638:	74 05                	je     40263f <__llvm_profile_get_path_prefix+0x17b>
  40263a:	e8 51 e8 ff ff       	callq  400e90 <__stack_chk_fail@plt>
  40263f:	c9                   	leaveq 
  402640:	c3                   	retq   

0000000000402641 <__llvm_profile_get_filename>:
  402641:	55                   	push   %rbp
  402642:	48 89 e5             	mov    %rsp,%rbp
  402645:	48 83 ec 20          	sub    $0x20,%rsp
  402649:	48 c7 c0 40 e3 60 00 	mov    $0x60e340,%rax
  402650:	48 8b 40 18          	mov    0x18(%rax),%rax
  402654:	48 85 c0             	test   %rax,%rax
  402657:	74 10                	je     402669 <__llvm_profile_get_filename+0x28>
  402659:	48 c7 c0 40 e3 60 00 	mov    $0x60e340,%rax
  402660:	48 8b 40 18          	mov    0x18(%rax),%rax
  402664:	e9 8e 00 00 00       	jmpq   4026f7 <__llvm_profile_get_filename+0xb6>
  402669:	b8 00 00 00 00       	mov    $0x0,%eax
  40266e:	e8 11 fa ff ff       	callq  402084 <getCurFilenameLength>
  402673:	89 45 ec             	mov    %eax,-0x14(%rbp)
  402676:	8b 45 ec             	mov    -0x14(%rbp),%eax
  402679:	83 c0 01             	add    $0x1,%eax
  40267c:	48 98                	cltq   
  40267e:	48 89 c7             	mov    %rax,%rdi
  402681:	e8 4a e8 ff ff       	callq  400ed0 <malloc@plt>
  402686:	48 89 45 f0          	mov    %rax,-0x10(%rbp)
  40268a:	48 83 7d f0 00       	cmpq   $0x0,-0x10(%rbp)
  40268f:	75 2e                	jne    4026bf <__llvm_profile_get_filename+0x7e>
  402691:	48 8b 05 50 59 20 00 	mov    0x205950(%rip),%rax        # 607fe8 <stderr@GLIBC_2.2.5>
  402698:	48 8b 00             	mov    (%rax),%rax
  40269b:	48 8d 15 53 31 00 00 	lea    0x3153(%rip),%rdx        # 4057f5 <__llvm_profile_filename.7+0x435>
  4026a2:	48 8d 35 5f 31 00 00 	lea    0x315f(%rip),%rsi        # 405808 <__llvm_profile_filename.7+0x448>
  4026a9:	48 89 c7             	mov    %rax,%rdi
  4026ac:	b8 00 00 00 00       	mov    $0x0,%eax
  4026b1:	e8 4a e8 ff ff       	callq  400f00 <fprintf@plt>
  4026b6:	48 8d 05 36 31 00 00 	lea    0x3136(%rip),%rax        # 4057f3 <__llvm_profile_filename.7+0x433>
  4026bd:	eb 38                	jmp    4026f7 <__llvm_profile_get_filename+0xb6>
  4026bf:	48 8b 45 f0          	mov    -0x10(%rbp),%rax
  4026c3:	be 01 00 00 00       	mov    $0x1,%esi
  4026c8:	48 89 c7             	mov    %rax,%rdi
  4026cb:	e8 bc fa ff ff       	callq  40218c <getCurFilename>
  4026d0:	48 89 45 f8          	mov    %rax,-0x8(%rbp)
  4026d4:	48 83 7d f8 00       	cmpq   $0x0,-0x8(%rbp)
  4026d9:	75 09                	jne    4026e4 <__llvm_profile_get_filename+0xa3>
  4026db:	48 8d 05 11 31 00 00 	lea    0x3111(%rip),%rax        # 4057f3 <__llvm_profile_filename.7+0x433>
  4026e2:	eb 13                	jmp    4026f7 <__llvm_profile_get_filename+0xb6>
  4026e4:	48 c7 c0 40 e3 60 00 	mov    $0x60e340,%rax
  4026eb:	48 8b 55 f0          	mov    -0x10(%rbp),%rdx
  4026ef:	48 89 50 18          	mov    %rdx,0x18(%rax)
  4026f3:	48 8b 45 f0          	mov    -0x10(%rbp),%rax
  4026f7:	c9                   	leaveq 
  4026f8:	c3                   	retq   

00000000004026f9 <__llvm_profile_initialize_file>:
  4026f9:	55                   	push   %rbp
  4026fa:	48 89 e5             	mov    %rsp,%rbp
  4026fd:	48 83 ec 20          	sub    $0x20,%rsp
  402701:	48 c7 45 f0 00 00 00 	movq   $0x0,-0x10(%rbp)
  402708:	00 
  402709:	c7 45 e8 00 00 00 00 	movl   $0x0,-0x18(%rbp)
  402710:	48 c7 c0 a0 53 40 00 	mov    $0x4053a0,%rax
  402717:	0f b6 00             	movzbl (%rax),%eax
  40271a:	84 c0                	test   %al,%al
  40271c:	0f 95 c0             	setne  %al
  40271f:	0f b6 c0             	movzbl %al,%eax
  402722:	89 45 ec             	mov    %eax,-0x14(%rbp)
  402725:	e8 63 fd ff ff       	callq  40248d <getFilenamePatFromEnv>
  40272a:	48 89 45 f8          	mov    %rax,-0x8(%rbp)
  40272e:	48 83 7d f8 00       	cmpq   $0x0,-0x8(%rbp)
  402733:	74 18                	je     40274d <__llvm_profile_initialize_file+0x54>
  402735:	48 8b 45 f8          	mov    -0x8(%rbp),%rax
  402739:	ba 01 00 00 00       	mov    $0x1,%edx
  40273e:	be 03 00 00 00       	mov    $0x3,%esi
  402743:	48 89 c7             	mov    %rax,%rdi
  402746:	e8 c3 f7 ff ff       	callq  401f0e <parseAndSetFilename>
  40274b:	eb 3f                	jmp    40278c <__llvm_profile_initialize_file+0x93>
  40274d:	83 7d ec 00          	cmpl   $0x0,-0x14(%rbp)
  402751:	74 14                	je     402767 <__llvm_profile_initialize_file+0x6e>
  402753:	48 c7 c0 a0 53 40 00 	mov    $0x4053a0,%rax
  40275a:	48 89 45 f0          	mov    %rax,-0x10(%rbp)
  40275e:	c7 45 e8 02 00 00 00 	movl   $0x2,-0x18(%rbp)
  402765:	eb 0f                	jmp    402776 <__llvm_profile_initialize_file+0x7d>
  402767:	48 c7 45 f0 00 00 00 	movq   $0x0,-0x10(%rbp)
  40276e:	00 
  40276f:	c7 45 e8 01 00 00 00 	movl   $0x1,-0x18(%rbp)
  402776:	8b 4d e8             	mov    -0x18(%rbp),%ecx
  402779:	48 8b 45 f0          	mov    -0x10(%rbp),%rax
  40277d:	ba 00 00 00 00       	mov    $0x0,%edx
  402782:	89 ce                	mov    %ecx,%esi
  402784:	48 89 c7             	mov    %rax,%rdi
  402787:	e8 82 f7 ff ff       	callq  401f0e <parseAndSetFilename>
  40278c:	c9                   	leaveq 
  40278d:	c3                   	retq   

000000000040278e <__llvm_profile_set_filename>:
  40278e:	55                   	push   %rbp
  40278f:	48 89 e5             	mov    %rsp,%rbp
  402792:	48 83 ec 10          	sub    $0x10,%rsp
  402796:	48 89 7d f8          	mov    %rdi,-0x8(%rbp)
  40279a:	48 8b 45 f8          	mov    -0x8(%rbp),%rax
  40279e:	ba 01 00 00 00       	mov    $0x1,%edx
  4027a3:	be 04 00 00 00       	mov    $0x4,%esi
  4027a8:	48 89 c7             	mov    %rax,%rdi
  4027ab:	e8 5e f7 ff ff       	callq  401f0e <parseAndSetFilename>
  4027b0:	90                   	nop
  4027b1:	c9                   	leaveq 
  4027b2:	c3                   	retq   

00000000004027b3 <__llvm_profile_write_file>:
  4027b3:	55                   	push   %rbp
  4027b4:	48 89 e5             	mov    %rsp,%rbp
  4027b7:	48 83 ec 30          	sub    $0x30,%rsp
  4027bb:	64 48 8b 04 25 28 00 	mov    %fs:0x28,%rax
  4027c2:	00 00 
  4027c4:	48 89 45 f8          	mov    %rax,-0x8(%rbp)
  4027c8:	31 c0                	xor    %eax,%eax
  4027ca:	c7 45 dc 00 00 00 00 	movl   $0x0,-0x24(%rbp)
  4027d1:	b8 00 00 00 00       	mov    $0x0,%eax
  4027d6:	e8 cd 19 00 00       	callq  4041a8 <lprofProfileDumped>
  4027db:	85 c0                	test   %eax,%eax
  4027dd:	74 2f                	je     40280e <__llvm_profile_write_file+0x5b>
  4027df:	48 8b 05 02 58 20 00 	mov    0x205802(%rip),%rax        # 607fe8 <stderr@GLIBC_2.2.5>
  4027e6:	48 8b 00             	mov    (%rax),%rax
  4027e9:	48 8d 15 3a 30 00 00 	lea    0x303a(%rip),%rdx        # 40582a <__llvm_profile_filename.7+0x46a>
  4027f0:	48 8d 35 49 30 00 00 	lea    0x3049(%rip),%rsi        # 405840 <__llvm_profile_filename.7+0x480>
  4027f7:	48 89 c7             	mov    %rax,%rdi
  4027fa:	b8 00 00 00 00       	mov    $0x0,%eax
  4027ff:	e8 fc e6 ff ff       	callq  400f00 <fprintf@plt>
  402804:	b8 00 00 00 00       	mov    $0x0,%eax
  402809:	e9 4d 01 00 00       	jmpq   40295b <__llvm_profile_write_file+0x1a8>
  40280e:	b8 00 00 00 00       	mov    $0x0,%eax
  402813:	e8 6c f8 ff ff       	callq  402084 <getCurFilenameLength>
  402818:	89 45 e0             	mov    %eax,-0x20(%rbp)
  40281b:	8b 45 e0             	mov    -0x20(%rbp),%eax
  40281e:	83 c0 01             	add    $0x1,%eax
  402821:	48 98                	cltq   
  402823:	48 8d 50 0f          	lea    0xf(%rax),%rdx
  402827:	b8 10 00 00 00       	mov    $0x10,%eax
  40282c:	48 83 e8 01          	sub    $0x1,%rax
  402830:	48 01 d0             	add    %rdx,%rax
  402833:	b9 10 00 00 00       	mov    $0x10,%ecx
  402838:	ba 00 00 00 00       	mov    $0x0,%edx
  40283d:	48 f7 f1             	div    %rcx
  402840:	48 6b c0 10          	imul   $0x10,%rax,%rax
  402844:	48 29 c4             	sub    %rax,%rsp
  402847:	48 89 e0             	mov    %rsp,%rax
  40284a:	48 83 c0 0f          	add    $0xf,%rax
  40284e:	48 c1 e8 04          	shr    $0x4,%rax
  402852:	48 c1 e0 04          	shl    $0x4,%rax
  402856:	48 89 45 e8          	mov    %rax,-0x18(%rbp)
  40285a:	48 8b 45 e8          	mov    -0x18(%rbp),%rax
  40285e:	be 00 00 00 00       	mov    $0x0,%esi
  402863:	48 89 c7             	mov    %rax,%rdi
  402866:	e8 21 f9 ff ff       	callq  40218c <getCurFilename>
  40286b:	48 89 45 f0          	mov    %rax,-0x10(%rbp)
  40286f:	48 83 7d f0 00       	cmpq   $0x0,-0x10(%rbp)
  402874:	75 2f                	jne    4028a5 <__llvm_profile_write_file+0xf2>
  402876:	48 8b 05 6b 57 20 00 	mov    0x20576b(%rip),%rax        # 607fe8 <stderr@GLIBC_2.2.5>
  40287d:	48 8b 00             	mov    (%rax),%rax
  402880:	48 8d 15 f3 2f 00 00 	lea    0x2ff3(%rip),%rdx        # 40587a <__llvm_profile_filename.7+0x4ba>
  402887:	48 8d 35 02 30 00 00 	lea    0x3002(%rip),%rsi        # 405890 <__llvm_profile_filename.7+0x4d0>
  40288e:	48 89 c7             	mov    %rax,%rdi
  402891:	b8 00 00 00 00       	mov    $0x0,%eax
  402896:	e8 65 e6 ff ff       	callq  400f00 <fprintf@plt>
  40289b:	b8 ff ff ff ff       	mov    $0xffffffff,%eax
  4028a0:	e9 b6 00 00 00       	jmpq   40295b <__llvm_profile_write_file+0x1a8>
  4028a5:	e8 2e 19 00 00       	callq  4041d8 <__llvm_profile_get_version>
  4028aa:	48 89 c2             	mov    %rax,%rdx
  4028ad:	48 b8 ff ff ff ff ff 	movabs $0xffffffffffffff,%rax
  4028b4:	ff ff 00 
  4028b7:	48 21 d0             	and    %rdx,%rax
  4028ba:	48 83 f8 04          	cmp    $0x4,%rax
  4028be:	74 33                	je     4028f3 <__llvm_profile_write_file+0x140>
  4028c0:	e8 13 19 00 00       	callq  4041d8 <__llvm_profile_get_version>
  4028c5:	89 c2                	mov    %eax,%edx
  4028c7:	48 8b 05 1a 57 20 00 	mov    0x20571a(%rip),%rax        # 607fe8 <stderr@GLIBC_2.2.5>
  4028ce:	48 8b 00             	mov    (%rax),%rax
  4028d1:	89 d1                	mov    %edx,%ecx
  4028d3:	ba 04 00 00 00       	mov    $0x4,%edx
  4028d8:	48 8d 35 e1 2f 00 00 	lea    0x2fe1(%rip),%rsi        # 4058c0 <__llvm_profile_filename.7+0x500>
  4028df:	48 89 c7             	mov    %rax,%rdi
  4028e2:	b8 00 00 00 00       	mov    $0x0,%eax
  4028e7:	e8 14 e6 ff ff       	callq  400f00 <fprintf@plt>
  4028ec:	b8 ff ff ff ff       	mov    $0xffffffff,%eax
  4028f1:	eb 68                	jmp    40295b <__llvm_profile_write_file+0x1a8>
  4028f3:	b8 00 00 00 00       	mov    $0x0,%eax
  4028f8:	e8 0a 18 00 00       	callq  404107 <lprofSuspendSigKill>
  4028fd:	89 45 dc             	mov    %eax,-0x24(%rbp)
  402900:	48 8b 45 f0          	mov    -0x10(%rbp),%rax
  402904:	48 89 c7             	mov    %rax,%rdi
  402907:	e8 a2 ef ff ff       	callq  4018ae <writeFile>
  40290c:	89 45 e4             	mov    %eax,-0x1c(%rbp)
  40290f:	83 7d e4 00          	cmpl   $0x0,-0x1c(%rbp)
  402913:	74 33                	je     402948 <__llvm_profile_write_file+0x195>
  402915:	e8 46 e4 ff ff       	callq  400d60 <__errno_location@plt>
  40291a:	8b 00                	mov    (%rax),%eax
  40291c:	89 c7                	mov    %eax,%edi
  40291e:	e8 5d e4 ff ff       	callq  400d80 <strerror@plt>
  402923:	48 89 c1             	mov    %rax,%rcx
  402926:	48 8b 05 bb 56 20 00 	mov    0x2056bb(%rip),%rax        # 607fe8 <stderr@GLIBC_2.2.5>
  40292d:	48 8b 00             	mov    (%rax),%rax
  402930:	48 8b 55 f0          	mov    -0x10(%rbp),%rdx
  402934:	48 8d 35 e5 2f 00 00 	lea    0x2fe5(%rip),%rsi        # 405920 <__llvm_profile_filename.7+0x560>
  40293b:	48 89 c7             	mov    %rax,%rdi
  40293e:	b8 00 00 00 00       	mov    $0x0,%eax
  402943:	e8 b8 e5 ff ff       	callq  400f00 <fprintf@plt>
  402948:	83 7d dc 01          	cmpl   $0x1,-0x24(%rbp)
  40294c:	75 0a                	jne    402958 <__llvm_profile_write_file+0x1a5>
  40294e:	b8 00 00 00 00       	mov    $0x0,%eax
  402953:	e8 25 18 00 00       	callq  40417d <lprofRestoreSigKill>
  402958:	8b 45 e4             	mov    -0x1c(%rbp),%eax
  40295b:	48 8b 4d f8          	mov    -0x8(%rbp),%rcx
  40295f:	64 48 33 0c 25 28 00 	xor    %fs:0x28,%rcx
  402966:	00 00 
  402968:	74 05                	je     40296f <__llvm_profile_write_file+0x1bc>
  40296a:	e8 21 e5 ff ff       	callq  400e90 <__stack_chk_fail@plt>
  40296f:	c9                   	leaveq 
  402970:	c3                   	retq   

0000000000402971 <__llvm_profile_dump>:
  402971:	55                   	push   %rbp
  402972:	48 89 e5             	mov    %rsp,%rbp
  402975:	48 83 ec 10          	sub    $0x10,%rsp
  402979:	b8 00 00 00 00       	mov    $0x0,%eax
  40297e:	e8 97 e8 ff ff       	callq  40121a <doMerging>
  402983:	85 c0                	test   %eax,%eax
  402985:	75 25                	jne    4029ac <__llvm_profile_dump+0x3b>
  402987:	48 8b 05 5a 56 20 00 	mov    0x20565a(%rip),%rax        # 607fe8 <stderr@GLIBC_2.2.5>
  40298e:	48 8b 00             	mov    (%rax),%rax
  402991:	48 8d 15 c0 2f 00 00 	lea    0x2fc0(%rip),%rdx        # 405958 <__llvm_profile_filename.7+0x598>
  402998:	48 8d 35 e1 2f 00 00 	lea    0x2fe1(%rip),%rsi        # 405980 <__llvm_profile_filename.7+0x5c0>
  40299f:	48 89 c7             	mov    %rax,%rdi
  4029a2:	b8 00 00 00 00       	mov    $0x0,%eax
  4029a7:	e8 54 e5 ff ff       	callq  400f00 <fprintf@plt>
  4029ac:	e8 02 fe ff ff       	callq  4027b3 <__llvm_profile_write_file>
  4029b1:	89 45 fc             	mov    %eax,-0x4(%rbp)
  4029b4:	b8 00 00 00 00       	mov    $0x0,%eax
  4029b9:	e8 f6 17 00 00       	callq  4041b4 <lprofSetProfileDumped>
  4029be:	8b 45 fc             	mov    -0x4(%rbp),%eax
  4029c1:	c9                   	leaveq 
  4029c2:	c3                   	retq   

00000000004029c3 <__llvm_orderfile_write_file>:
  4029c3:	55                   	push   %rbp
  4029c4:	48 89 e5             	mov    %rsp,%rbp
  4029c7:	48 83 ec 30          	sub    $0x30,%rsp
  4029cb:	64 48 8b 04 25 28 00 	mov    %fs:0x28,%rax
  4029d2:	00 00 
  4029d4:	48 89 45 f8          	mov    %rax,-0x8(%rbp)
  4029d8:	31 c0                	xor    %eax,%eax
  4029da:	c7 45 d4 00 00 00 00 	movl   $0x0,-0x2c(%rbp)
  4029e1:	48 8b 05 70 57 20 00 	mov    0x205770(%rip),%rax        # 608158 <OrderFileSuffix>
  4029e8:	48 89 c7             	mov    %rax,%rdi
  4029eb:	e8 b0 e3 ff ff       	callq  400da0 <strlen@plt>
  4029f0:	89 45 d8             	mov    %eax,-0x28(%rbp)
  4029f3:	b8 00 00 00 00       	mov    $0x0,%eax
  4029f8:	e8 87 f6 ff ff       	callq  402084 <getCurFilenameLength>
  4029fd:	89 c2                	mov    %eax,%edx
  4029ff:	8b 45 d8             	mov    -0x28(%rbp),%eax
  402a02:	01 d0                	add    %edx,%eax
  402a04:	89 45 dc             	mov    %eax,-0x24(%rbp)
  402a07:	8b 45 dc             	mov    -0x24(%rbp),%eax
  402a0a:	83 c0 01             	add    $0x1,%eax
  402a0d:	48 98                	cltq   
  402a0f:	48 8d 50 0f          	lea    0xf(%rax),%rdx
  402a13:	b8 10 00 00 00       	mov    $0x10,%eax
  402a18:	48 83 e8 01          	sub    $0x1,%rax
  402a1c:	48 01 d0             	add    %rdx,%rax
  402a1f:	be 10 00 00 00       	mov    $0x10,%esi
  402a24:	ba 00 00 00 00       	mov    $0x0,%edx
  402a29:	48 f7 f6             	div    %rsi
  402a2c:	48 6b c0 10          	imul   $0x10,%rax,%rax
  402a30:	48 29 c4             	sub    %rax,%rsp
  402a33:	48 89 e0             	mov    %rsp,%rax
  402a36:	48 83 c0 0f          	add    $0xf,%rax
  402a3a:	48 c1 e8 04          	shr    $0x4,%rax
  402a3e:	48 c1 e0 04          	shl    $0x4,%rax
  402a42:	48 89 45 e8          	mov    %rax,-0x18(%rbp)
  402a46:	48 8b 45 e8          	mov    -0x18(%rbp),%rax
  402a4a:	be 01 00 00 00       	mov    $0x1,%esi
  402a4f:	48 89 c7             	mov    %rax,%rdi
  402a52:	e8 35 f7 ff ff       	callq  40218c <getCurFilename>
  402a57:	48 89 45 f0          	mov    %rax,-0x10(%rbp)
  402a5b:	48 83 7d f0 00       	cmpq   $0x0,-0x10(%rbp)
  402a60:	75 2f                	jne    402a91 <__llvm_orderfile_write_file+0xce>
  402a62:	48 8b 05 7f 55 20 00 	mov    0x20557f(%rip),%rax        # 607fe8 <stderr@GLIBC_2.2.5>
  402a69:	48 8b 00             	mov    (%rax),%rax
  402a6c:	48 8d 15 07 2e 00 00 	lea    0x2e07(%rip),%rdx        # 40587a <__llvm_profile_filename.7+0x4ba>
  402a73:	48 8d 35 16 2e 00 00 	lea    0x2e16(%rip),%rsi        # 405890 <__llvm_profile_filename.7+0x4d0>
  402a7a:	48 89 c7             	mov    %rax,%rdi
  402a7d:	b8 00 00 00 00       	mov    $0x0,%eax
  402a82:	e8 79 e4 ff ff       	callq  400f00 <fprintf@plt>
  402a87:	b8 ff ff ff ff       	mov    $0xffffffff,%eax
  402a8c:	e9 ff 00 00 00       	jmpq   402b90 <__llvm_orderfile_write_file+0x1cd>
  402a91:	48 8b 45 f0          	mov    -0x10(%rbp),%rax
  402a95:	48 89 c7             	mov    %rax,%rdi
  402a98:	e8 03 e3 ff ff       	callq  400da0 <strlen@plt>
  402a9d:	89 45 e0             	mov    %eax,-0x20(%rbp)
  402aa0:	8b 45 d8             	mov    -0x28(%rbp),%eax
  402aa3:	48 63 d0             	movslq %eax,%rdx
  402aa6:	48 8b 05 ab 56 20 00 	mov    0x2056ab(%rip),%rax        # 608158 <OrderFileSuffix>
  402aad:	8b 4d e0             	mov    -0x20(%rbp),%ecx
  402ab0:	48 63 f1             	movslq %ecx,%rsi
  402ab3:	48 8b 4d e8          	mov    -0x18(%rbp),%rcx
  402ab7:	48 01 f1             	add    %rsi,%rcx
  402aba:	48 89 c6             	mov    %rax,%rsi
  402abd:	48 89 cf             	mov    %rcx,%rdi
  402ac0:	e8 5b e3 ff ff       	callq  400e20 <memcpy@plt>
  402ac5:	8b 55 e0             	mov    -0x20(%rbp),%edx
  402ac8:	8b 45 d8             	mov    -0x28(%rbp),%eax
  402acb:	01 d0                	add    %edx,%eax
  402acd:	48 63 d0             	movslq %eax,%rdx
  402ad0:	48 8b 45 e8          	mov    -0x18(%rbp),%rax
  402ad4:	48 01 d0             	add    %rdx,%rax
  402ad7:	c6 00 00             	movb   $0x0,(%rax)
  402ada:	e8 f9 16 00 00       	callq  4041d8 <__llvm_profile_get_version>
  402adf:	48 89 c2             	mov    %rax,%rdx
  402ae2:	48 b8 ff ff ff ff ff 	movabs $0xffffffffffffff,%rax
  402ae9:	ff ff 00 
  402aec:	48 21 d0             	and    %rdx,%rax
  402aef:	48 83 f8 04          	cmp    $0x4,%rax
  402af3:	74 33                	je     402b28 <__llvm_orderfile_write_file+0x165>
  402af5:	e8 de 16 00 00       	callq  4041d8 <__llvm_profile_get_version>
  402afa:	89 c2                	mov    %eax,%edx
  402afc:	48 8b 05 e5 54 20 00 	mov    0x2054e5(%rip),%rax        # 607fe8 <stderr@GLIBC_2.2.5>
  402b03:	48 8b 00             	mov    (%rax),%rax
  402b06:	89 d1                	mov    %edx,%ecx
  402b08:	ba 04 00 00 00       	mov    $0x4,%edx
  402b0d:	48 8d 35 ac 2d 00 00 	lea    0x2dac(%rip),%rsi        # 4058c0 <__llvm_profile_filename.7+0x500>
  402b14:	48 89 c7             	mov    %rax,%rdi
  402b17:	b8 00 00 00 00       	mov    $0x0,%eax
  402b1c:	e8 df e3 ff ff       	callq  400f00 <fprintf@plt>
  402b21:	b8 ff ff ff ff       	mov    $0xffffffff,%eax
  402b26:	eb 68                	jmp    402b90 <__llvm_orderfile_write_file+0x1cd>
  402b28:	b8 00 00 00 00       	mov    $0x0,%eax
  402b2d:	e8 d5 15 00 00       	callq  404107 <lprofSuspendSigKill>
  402b32:	89 45 d4             	mov    %eax,-0x2c(%rbp)
  402b35:	48 8b 45 f0          	mov    -0x10(%rbp),%rax
  402b39:	48 89 c7             	mov    %rax,%rdi
  402b3c:	e8 66 ee ff ff       	callq  4019a7 <writeOrderFile>
  402b41:	89 45 e4             	mov    %eax,-0x1c(%rbp)
  402b44:	83 7d e4 00          	cmpl   $0x0,-0x1c(%rbp)
  402b48:	74 33                	je     402b7d <__llvm_orderfile_write_file+0x1ba>
  402b4a:	e8 11 e2 ff ff       	callq  400d60 <__errno_location@plt>
  402b4f:	8b 00                	mov    (%rax),%eax
  402b51:	89 c7                	mov    %eax,%edi
  402b53:	e8 28 e2 ff ff       	callq  400d80 <strerror@plt>
  402b58:	48 89 c1             	mov    %rax,%rcx
  402b5b:	48 8b 05 86 54 20 00 	mov    0x205486(%rip),%rax        # 607fe8 <stderr@GLIBC_2.2.5>
  402b62:	48 8b 00             	mov    (%rax),%rax
  402b65:	48 8b 55 f0          	mov    -0x10(%rbp),%rdx
  402b69:	48 8d 35 b0 2d 00 00 	lea    0x2db0(%rip),%rsi        # 405920 <__llvm_profile_filename.7+0x560>
  402b70:	48 89 c7             	mov    %rax,%rdi
  402b73:	b8 00 00 00 00       	mov    $0x0,%eax
  402b78:	e8 83 e3 ff ff       	callq  400f00 <fprintf@plt>
  402b7d:	83 7d d4 01          	cmpl   $0x1,-0x2c(%rbp)
  402b81:	75 0a                	jne    402b8d <__llvm_orderfile_write_file+0x1ca>
  402b83:	b8 00 00 00 00       	mov    $0x0,%eax
  402b88:	e8 f0 15 00 00       	callq  40417d <lprofRestoreSigKill>
  402b8d:	8b 45 e4             	mov    -0x1c(%rbp),%eax
  402b90:	48 8b 75 f8          	mov    -0x8(%rbp),%rsi
  402b94:	64 48 33 34 25 28 00 	xor    %fs:0x28,%rsi
  402b9b:	00 00 
  402b9d:	74 05                	je     402ba4 <__llvm_orderfile_write_file+0x1e1>
  402b9f:	e8 ec e2 ff ff       	callq  400e90 <__stack_chk_fail@plt>
  402ba4:	c9                   	leaveq 
  402ba5:	c3                   	retq   

0000000000402ba6 <__llvm_orderfile_dump>:
  402ba6:	55                   	push   %rbp
  402ba7:	48 89 e5             	mov    %rsp,%rbp
  402baa:	48 83 ec 10          	sub    $0x10,%rsp
  402bae:	e8 10 fe ff ff       	callq  4029c3 <__llvm_orderfile_write_file>
  402bb3:	89 45 fc             	mov    %eax,-0x4(%rbp)
  402bb6:	8b 45 fc             	mov    -0x4(%rbp),%eax
  402bb9:	c9                   	leaveq 
  402bba:	c3                   	retq   

0000000000402bbb <writeFileWithoutReturn>:
  402bbb:	55                   	push   %rbp
  402bbc:	48 89 e5             	mov    %rsp,%rbp
  402bbf:	e8 ef fb ff ff       	callq  4027b3 <__llvm_profile_write_file>
  402bc4:	90                   	nop
  402bc5:	5d                   	pop    %rbp
  402bc6:	c3                   	retq   

0000000000402bc7 <__llvm_profile_register_write_file_atexit>:
  402bc7:	55                   	push   %rbp
  402bc8:	48 89 e5             	mov    %rsp,%rbp
  402bcb:	8b 05 2f b8 20 00    	mov    0x20b82f(%rip),%eax        # 60e400 <HasBeenRegistered.4629>
  402bd1:	85 c0                	test   %eax,%eax
  402bd3:	74 07                	je     402bdc <__llvm_profile_register_write_file_atexit+0x15>
  402bd5:	b8 00 00 00 00       	mov    $0x0,%eax
  402bda:	eb 20                	jmp    402bfc <__llvm_profile_register_write_file_atexit+0x35>
  402bdc:	b8 00 00 00 00       	mov    $0x0,%eax
  402be1:	e8 24 1a 00 00       	callq  40460a <lprofSetupValueProfiler>
  402be6:	c7 05 10 b8 20 00 01 	movl   $0x1,0x20b810(%rip)        # 60e400 <HasBeenRegistered.4629>
  402bed:	00 00 00 
  402bf0:	48 8d 3d c4 ff ff ff 	lea    -0x3c(%rip),%rdi        # 402bbb <writeFileWithoutReturn>
  402bf7:	e8 74 27 00 00       	callq  405370 <atexit>
  402bfc:	5d                   	pop    %rbp
  402bfd:	c3                   	retq   

0000000000402bfe <lprofGetLoadModuleSignature>:
  402bfe:	55                   	push   %rbp
  402bff:	48 89 e5             	mov    %rsp,%rbp
  402c02:	53                   	push   %rbx
  402c03:	48 83 ec 38          	sub    $0x38,%rsp
  402c07:	e8 e8 0f 00 00       	callq  403bf4 <__llvm_profile_end_counters>
  402c0c:	48 89 c3             	mov    %rax,%rbx
  402c0f:	e8 d3 0f 00 00       	callq  403be7 <__llvm_profile_begin_counters>
  402c14:	48 29 c3             	sub    %rax,%rbx
  402c17:	48 89 d8             	mov    %rbx,%rax
  402c1a:	48 c1 f8 03          	sar    $0x3,%rax
  402c1e:	48 89 45 c8          	mov    %rax,-0x38(%rbp)
  402c22:	e8 99 0f 00 00       	callq  403bc0 <__llvm_profile_end_data>
  402c27:	48 89 c3             	mov    %rax,%rbx
  402c2a:	e8 84 0f 00 00       	callq  403bb3 <__llvm_profile_begin_data>
  402c2f:	48 89 de             	mov    %rbx,%rsi
  402c32:	48 89 c7             	mov    %rax,%rdi
  402c35:	e8 c6 24 00 00       	callq  405100 <__llvm_profile_get_data_size>
  402c3a:	48 89 45 d0          	mov    %rax,-0x30(%rbp)
  402c3e:	e8 97 0f 00 00       	callq  403bda <__llvm_profile_end_names>
  402c43:	48 89 c3             	mov    %rax,%rbx
  402c46:	e8 82 0f 00 00       	callq  403bcd <__llvm_profile_begin_names>
  402c4b:	48 29 c3             	sub    %rax,%rbx
  402c4e:	48 89 d8             	mov    %rbx,%rax
  402c51:	48 89 45 d8          	mov    %rax,-0x28(%rbp)
  402c55:	b8 00 00 00 00       	mov    $0x0,%eax
  402c5a:	e8 bc 0f 00 00       	callq  403c1b <__llvm_profile_end_vnodes>
  402c5f:	48 89 c3             	mov    %rax,%rbx
  402c62:	b8 00 00 00 00       	mov    $0x0,%eax
  402c67:	e8 a2 0f 00 00       	callq  403c0e <__llvm_profile_begin_vnodes>
  402c6c:	48 29 c3             	sub    %rax,%rbx
  402c6f:	48 89 d8             	mov    %rbx,%rax
  402c72:	48 c1 f8 03          	sar    $0x3,%rax
  402c76:	48 89 c2             	mov    %rax,%rdx
  402c79:	48 b8 ab aa aa aa aa 	movabs $0xaaaaaaaaaaaaaaab,%rax
  402c80:	aa aa aa 
  402c83:	48 0f af c2          	imul   %rdx,%rax
  402c87:	48 89 45 e0          	mov    %rax,-0x20(%rbp)
  402c8b:	e8 23 0f 00 00       	callq  403bb3 <__llvm_profile_begin_data>
  402c90:	48 89 45 e8          	mov    %rax,-0x18(%rbp)
  402c94:	48 8b 45 d8          	mov    -0x28(%rbp),%rax
  402c98:	48 c1 e0 28          	shl    $0x28,%rax
  402c9c:	48 89 c2             	mov    %rax,%rdx
  402c9f:	48 8b 45 c8          	mov    -0x38(%rbp),%rax
  402ca3:	48 c1 e0 1e          	shl    $0x1e,%rax
  402ca7:	48 01 c2             	add    %rax,%rdx
  402caa:	48 8b 45 d0          	mov    -0x30(%rbp),%rax
  402cae:	48 c1 e0 14          	shl    $0x14,%rax
  402cb2:	48 01 c2             	add    %rax,%rdx
  402cb5:	48 8b 45 e0          	mov    -0x20(%rbp),%rax
  402cb9:	48 c1 e0 0a          	shl    $0xa,%rax
  402cbd:	48 01 c2             	add    %rax,%rdx
  402cc0:	48 83 7d d0 00       	cmpq   $0x0,-0x30(%rbp)
  402cc5:	74 09                	je     402cd0 <lprofGetLoadModuleSignature+0xd2>
  402cc7:	48 8b 45 e8          	mov    -0x18(%rbp),%rax
  402ccb:	48 8b 00             	mov    (%rax),%rax
  402cce:	eb 05                	jmp    402cd5 <lprofGetLoadModuleSignature+0xd7>
  402cd0:	b8 00 00 00 00       	mov    $0x0,%eax
  402cd5:	48 01 d0             	add    %rdx,%rax
  402cd8:	48 83 c4 38          	add    $0x38,%rsp
  402cdc:	5b                   	pop    %rbx
  402cdd:	5d                   	pop    %rbp
  402cde:	c3                   	retq   

0000000000402cdf <__llvm_profile_check_compatibility>:
  402cdf:	55                   	push   %rbp
  402ce0:	48 89 e5             	mov    %rsp,%rbp
  402ce3:	41 54                	push   %r12
  402ce5:	53                   	push   %rbx
  402ce6:	48 83 ec 40          	sub    $0x40,%rsp
  402cea:	48 89 7d b8          	mov    %rdi,-0x48(%rbp)
  402cee:	48 89 75 b0          	mov    %rsi,-0x50(%rbp)
  402cf2:	48 8b 45 b8          	mov    -0x48(%rbp),%rax
  402cf6:	48 89 45 d8          	mov    %rax,-0x28(%rbp)
  402cfa:	48 8b 45 b8          	mov    -0x48(%rbp),%rax
  402cfe:	48 83 c0 40          	add    $0x40,%rax
  402d02:	48 89 45 e0          	mov    %rax,-0x20(%rbp)
  402d06:	48 8b 45 d8          	mov    -0x28(%rbp),%rax
  402d0a:	48 8b 50 10          	mov    0x10(%rax),%rdx
  402d0e:	48 89 d0             	mov    %rdx,%rax
  402d11:	48 01 c0             	add    %rax,%rax
  402d14:	48 01 d0             	add    %rdx,%rax
  402d17:	48 c1 e0 04          	shl    $0x4,%rax
  402d1b:	48 89 c2             	mov    %rax,%rdx
  402d1e:	48 8b 45 e0          	mov    -0x20(%rbp),%rax
  402d22:	48 01 d0             	add    %rdx,%rax
  402d25:	48 89 45 e8          	mov    %rax,-0x18(%rbp)
  402d29:	48 83 7d b0 3f       	cmpq   $0x3f,-0x50(%rbp)
  402d2e:	77 0a                	ja     402d3a <__llvm_profile_check_compatibility+0x5b>
  402d30:	b8 01 00 00 00       	mov    $0x1,%eax
  402d35:	e9 54 01 00 00       	jmpq   402e8e <__llvm_profile_check_compatibility+0x1af>
  402d3a:	48 8b 45 d8          	mov    -0x28(%rbp),%rax
  402d3e:	48 8b 18             	mov    (%rax),%rbx
  402d41:	e8 52 14 00 00       	callq  404198 <__llvm_profile_get_magic>
  402d46:	48 39 c3             	cmp    %rax,%rbx
  402d49:	0f 85 89 00 00 00    	jne    402dd8 <__llvm_profile_check_compatibility+0xf9>
  402d4f:	48 8b 45 d8          	mov    -0x28(%rbp),%rax
  402d53:	48 8b 58 08          	mov    0x8(%rax),%rbx
  402d57:	e8 7c 14 00 00       	callq  4041d8 <__llvm_profile_get_version>
  402d5c:	48 39 c3             	cmp    %rax,%rbx
  402d5f:	75 77                	jne    402dd8 <__llvm_profile_check_compatibility+0xf9>
  402d61:	48 8b 45 d8          	mov    -0x28(%rbp),%rax
  402d65:	48 8b 58 10          	mov    0x10(%rax),%rbx
  402d69:	e8 52 0e 00 00       	callq  403bc0 <__llvm_profile_end_data>
  402d6e:	49 89 c4             	mov    %rax,%r12
  402d71:	e8 3d 0e 00 00       	callq  403bb3 <__llvm_profile_begin_data>
  402d76:	4c 89 e6             	mov    %r12,%rsi
  402d79:	48 89 c7             	mov    %rax,%rdi
  402d7c:	e8 7f 23 00 00       	callq  405100 <__llvm_profile_get_data_size>
  402d81:	48 39 c3             	cmp    %rax,%rbx
  402d84:	75 52                	jne    402dd8 <__llvm_profile_check_compatibility+0xf9>
  402d86:	48 8b 45 d8          	mov    -0x28(%rbp),%rax
  402d8a:	48 8b 58 18          	mov    0x18(%rax),%rbx
  402d8e:	e8 61 0e 00 00       	callq  403bf4 <__llvm_profile_end_counters>
  402d93:	49 89 c4             	mov    %rax,%r12
  402d96:	e8 4c 0e 00 00       	callq  403be7 <__llvm_profile_begin_counters>
  402d9b:	49 29 c4             	sub    %rax,%r12
  402d9e:	4c 89 e0             	mov    %r12,%rax
  402da1:	48 c1 f8 03          	sar    $0x3,%rax
  402da5:	48 39 c3             	cmp    %rax,%rbx
  402da8:	75 2e                	jne    402dd8 <__llvm_profile_check_compatibility+0xf9>
  402daa:	48 8b 45 d8          	mov    -0x28(%rbp),%rax
  402dae:	48 8b 58 20          	mov    0x20(%rax),%rbx
  402db2:	e8 23 0e 00 00       	callq  403bda <__llvm_profile_end_names>
  402db7:	49 89 c4             	mov    %rax,%r12
  402dba:	e8 0e 0e 00 00       	callq  403bcd <__llvm_profile_begin_names>
  402dbf:	49 29 c4             	sub    %rax,%r12
  402dc2:	4c 89 e0             	mov    %r12,%rax
  402dc5:	48 39 c3             	cmp    %rax,%rbx
  402dc8:	75 0e                	jne    402dd8 <__llvm_profile_check_compatibility+0xf9>
  402dca:	48 8b 45 d8          	mov    -0x28(%rbp),%rax
  402dce:	48 8b 40 38          	mov    0x38(%rax),%rax
  402dd2:	48 83 f8 01          	cmp    $0x1,%rax
  402dd6:	74 0a                	je     402de2 <__llvm_profile_check_compatibility+0x103>
  402dd8:	b8 01 00 00 00       	mov    $0x1,%eax
  402ddd:	e9 ac 00 00 00       	jmpq   402e8e <__llvm_profile_check_compatibility+0x1af>
  402de2:	48 8b 45 d8          	mov    -0x28(%rbp),%rax
  402de6:	48 8b 50 10          	mov    0x10(%rax),%rdx
  402dea:	48 89 d0             	mov    %rdx,%rax
  402ded:	48 01 c0             	add    %rax,%rax
  402df0:	48 01 d0             	add    %rdx,%rax
  402df3:	48 c1 e0 04          	shl    $0x4,%rax
  402df7:	48 89 c2             	mov    %rax,%rdx
  402dfa:	48 8b 45 d8          	mov    -0x28(%rbp),%rax
  402dfe:	48 8b 40 20          	mov    0x20(%rax),%rax
  402e02:	48 01 c2             	add    %rax,%rdx
  402e05:	48 8b 45 d8          	mov    -0x28(%rbp),%rax
  402e09:	48 8b 40 18          	mov    0x18(%rax),%rax
  402e0d:	48 01 d0             	add    %rdx,%rax
  402e10:	48 83 c0 40          	add    $0x40,%rax
  402e14:	48 39 45 b0          	cmp    %rax,-0x50(%rbp)
  402e18:	73 07                	jae    402e21 <__llvm_profile_check_compatibility+0x142>
  402e1a:	b8 01 00 00 00       	mov    $0x1,%eax
  402e1f:	eb 6d                	jmp    402e8e <__llvm_profile_check_compatibility+0x1af>
  402e21:	48 8b 45 e0          	mov    -0x20(%rbp),%rax
  402e25:	48 89 45 c8          	mov    %rax,-0x38(%rbp)
  402e29:	e8 85 0d 00 00       	callq  403bb3 <__llvm_profile_begin_data>
  402e2e:	48 89 45 d0          	mov    %rax,-0x30(%rbp)
  402e32:	eb 4b                	jmp    402e7f <__llvm_profile_check_compatibility+0x1a0>
  402e34:	48 8b 45 c8          	mov    -0x38(%rbp),%rax
  402e38:	48 8b 10             	mov    (%rax),%rdx
  402e3b:	48 8b 45 d0          	mov    -0x30(%rbp),%rax
  402e3f:	48 8b 00             	mov    (%rax),%rax
  402e42:	48 39 c2             	cmp    %rax,%rdx
  402e45:	75 27                	jne    402e6e <__llvm_profile_check_compatibility+0x18f>
  402e47:	48 8b 45 c8          	mov    -0x38(%rbp),%rax
  402e4b:	48 8b 50 08          	mov    0x8(%rax),%rdx
  402e4f:	48 8b 45 d0          	mov    -0x30(%rbp),%rax
  402e53:	48 8b 40 08          	mov    0x8(%rax),%rax
  402e57:	48 39 c2             	cmp    %rax,%rdx
  402e5a:	75 12                	jne    402e6e <__llvm_profile_check_compatibility+0x18f>
  402e5c:	48 8b 45 c8          	mov    -0x38(%rbp),%rax
  402e60:	8b 50 28             	mov    0x28(%rax),%edx
  402e63:	48 8b 45 d0          	mov    -0x30(%rbp),%rax
  402e67:	8b 40 28             	mov    0x28(%rax),%eax
  402e6a:	39 c2                	cmp    %eax,%edx
  402e6c:	74 07                	je     402e75 <__llvm_profile_check_compatibility+0x196>
  402e6e:	b8 01 00 00 00       	mov    $0x1,%eax
  402e73:	eb 19                	jmp    402e8e <__llvm_profile_check_compatibility+0x1af>
  402e75:	48 83 45 c8 30       	addq   $0x30,-0x38(%rbp)
  402e7a:	48 83 45 d0 30       	addq   $0x30,-0x30(%rbp)
  402e7f:	48 8b 45 c8          	mov    -0x38(%rbp),%rax
  402e83:	48 3b 45 e8          	cmp    -0x18(%rbp),%rax
  402e87:	72 ab                	jb     402e34 <__llvm_profile_check_compatibility+0x155>
  402e89:	b8 00 00 00 00       	mov    $0x0,%eax
  402e8e:	48 83 c4 40          	add    $0x40,%rsp
  402e92:	5b                   	pop    %rbx
  402e93:	41 5c                	pop    %r12
  402e95:	5d                   	pop    %rbp
  402e96:	c3                   	retq   

0000000000402e97 <__llvm_profile_merge_from_buffer>:
  402e97:	55                   	push   %rbp
  402e98:	48 89 e5             	mov    %rsp,%rbp
  402e9b:	53                   	push   %rbx
  402e9c:	48 81 ec 88 00 00 00 	sub    $0x88,%rsp
  402ea3:	48 89 bd 78 ff ff ff 	mov    %rdi,-0x88(%rbp)
  402eaa:	48 89 b5 70 ff ff ff 	mov    %rsi,-0x90(%rbp)
  402eb1:	48 8b 85 78 ff ff ff 	mov    -0x88(%rbp),%rax
  402eb8:	48 89 45 b0          	mov    %rax,-0x50(%rbp)
  402ebc:	48 8b 85 78 ff ff ff 	mov    -0x88(%rbp),%rax
  402ec3:	48 83 c0 40          	add    $0x40,%rax
  402ec7:	48 89 45 b8          	mov    %rax,-0x48(%rbp)
  402ecb:	48 8b 45 b0          	mov    -0x50(%rbp),%rax
  402ecf:	48 8b 50 10          	mov    0x10(%rax),%rdx
  402ed3:	48 89 d0             	mov    %rdx,%rax
  402ed6:	48 01 c0             	add    %rax,%rax
  402ed9:	48 01 d0             	add    %rdx,%rax
  402edc:	48 c1 e0 04          	shl    $0x4,%rax
  402ee0:	48 89 c2             	mov    %rax,%rdx
  402ee3:	48 8b 45 b8          	mov    -0x48(%rbp),%rax
  402ee7:	48 01 d0             	add    %rdx,%rax
  402eea:	48 89 45 c0          	mov    %rax,-0x40(%rbp)
  402eee:	48 8b 45 c0          	mov    -0x40(%rbp),%rax
  402ef2:	48 89 45 c8          	mov    %rax,-0x38(%rbp)
  402ef6:	48 8b 45 b0          	mov    -0x50(%rbp),%rax
  402efa:	48 8b 40 18          	mov    0x18(%rax),%rax
  402efe:	48 8d 14 c5 00 00 00 	lea    0x0(,%rax,8),%rdx
  402f05:	00 
  402f06:	48 8b 45 c8          	mov    -0x38(%rbp),%rax
  402f0a:	48 01 d0             	add    %rdx,%rax
  402f0d:	48 89 45 d0          	mov    %rax,-0x30(%rbp)
  402f11:	48 8b 45 b0          	mov    -0x50(%rbp),%rax
  402f15:	48 8b 58 20          	mov    0x20(%rax),%rbx
  402f19:	48 8b 45 b0          	mov    -0x50(%rbp),%rax
  402f1d:	48 8b 40 20          	mov    0x20(%rax),%rax
  402f21:	48 89 c7             	mov    %rax,%rdi
  402f24:	e8 9c 12 00 00       	callq  4041c5 <__llvm_profile_get_num_padding_bytes>
  402f29:	0f b6 c0             	movzbl %al,%eax
  402f2c:	48 8d 14 03          	lea    (%rbx,%rax,1),%rdx
  402f30:	48 8b 45 d0          	mov    -0x30(%rbp),%rax
  402f34:	48 01 d0             	add    %rdx,%rax
  402f37:	48 89 45 d8          	mov    %rax,-0x28(%rbp)
  402f3b:	48 8b 45 b8          	mov    -0x48(%rbp),%rax
  402f3f:	48 89 45 98          	mov    %rax,-0x68(%rbp)
  402f43:	e8 6b 0c 00 00       	callq  403bb3 <__llvm_profile_begin_data>
  402f48:	48 89 45 a0          	mov    %rax,-0x60(%rbp)
  402f4c:	48 8b 45 d8          	mov    -0x28(%rbp),%rax
  402f50:	48 89 45 a8          	mov    %rax,-0x58(%rbp)
  402f54:	e9 13 01 00 00       	jmpq   40306c <__llvm_profile_merge_from_buffer+0x1d5>
  402f59:	48 8b 45 a0          	mov    -0x60(%rbp),%rax
  402f5d:	48 8b 40 10          	mov    0x10(%rax),%rax
  402f61:	48 89 45 e0          	mov    %rax,-0x20(%rbp)
  402f65:	c7 45 90 00 00 00 00 	movl   $0x0,-0x70(%rbp)
  402f6c:	48 8b 45 98          	mov    -0x68(%rbp),%rax
  402f70:	8b 40 28             	mov    0x28(%rax),%eax
  402f73:	89 45 94             	mov    %eax,-0x6c(%rbp)
  402f76:	48 8b 45 98          	mov    -0x68(%rbp),%rax
  402f7a:	48 8b 40 10          	mov    0x10(%rax),%rax
  402f7e:	48 89 c2             	mov    %rax,%rdx
  402f81:	48 8b 45 b0          	mov    -0x50(%rbp),%rax
  402f85:	48 8b 40 28          	mov    0x28(%rax),%rax
  402f89:	48 29 c2             	sub    %rax,%rdx
  402f8c:	48 89 d0             	mov    %rdx,%rax
  402f8f:	48 83 e0 f8          	and    $0xfffffffffffffff8,%rax
  402f93:	48 89 c2             	mov    %rax,%rdx
  402f96:	48 8b 45 c8          	mov    -0x38(%rbp),%rax
  402f9a:	48 01 d0             	add    %rdx,%rax
  402f9d:	48 89 45 e8          	mov    %rax,-0x18(%rbp)
  402fa1:	c7 45 8c 00 00 00 00 	movl   $0x0,-0x74(%rbp)
  402fa8:	eb 46                	jmp    402ff0 <__llvm_profile_merge_from_buffer+0x159>
  402faa:	8b 45 8c             	mov    -0x74(%rbp),%eax
  402fad:	48 8d 14 c5 00 00 00 	lea    0x0(,%rax,8),%rdx
  402fb4:	00 
  402fb5:	48 8b 45 e0          	mov    -0x20(%rbp),%rax
  402fb9:	48 01 d0             	add    %rdx,%rax
  402fbc:	48 8b 08             	mov    (%rax),%rcx
  402fbf:	8b 45 8c             	mov    -0x74(%rbp),%eax
  402fc2:	48 8d 14 c5 00 00 00 	lea    0x0(,%rax,8),%rdx
  402fc9:	00 
  402fca:	48 8b 45 e8          	mov    -0x18(%rbp),%rax
  402fce:	48 01 d0             	add    %rdx,%rax
  402fd1:	48 8b 10             	mov    (%rax),%rdx
  402fd4:	8b 45 8c             	mov    -0x74(%rbp),%eax
  402fd7:	48 8d 34 c5 00 00 00 	lea    0x0(,%rax,8),%rsi
  402fde:	00 
  402fdf:	48 8b 45 e0          	mov    -0x20(%rbp),%rax
  402fe3:	48 01 f0             	add    %rsi,%rax
  402fe6:	48 01 ca             	add    %rcx,%rdx
  402fe9:	48 89 10             	mov    %rdx,(%rax)
  402fec:	83 45 8c 01          	addl   $0x1,-0x74(%rbp)
  402ff0:	8b 45 8c             	mov    -0x74(%rbp),%eax
  402ff3:	3b 45 94             	cmp    -0x6c(%rbp),%eax
  402ff6:	72 b2                	jb     402faa <__llvm_profile_merge_from_buffer+0x113>
  402ff8:	48 8b 05 c1 d5 20 00 	mov    0x20d5c1(%rip),%rax        # 6105c0 <VPMergeHook>
  402fff:	48 85 c0             	test   %rax,%rax
  403002:	74 5a                	je     40305e <__llvm_profile_merge_from_buffer+0x1c7>
  403004:	c7 45 8c 00 00 00 00 	movl   $0x0,-0x74(%rbp)
  40300b:	eb 20                	jmp    40302d <__llvm_profile_merge_from_buffer+0x196>
  40300d:	48 8b 45 98          	mov    -0x68(%rbp),%rax
  403011:	8b 55 8c             	mov    -0x74(%rbp),%edx
  403014:	48 83 c2 10          	add    $0x10,%rdx
  403018:	0f b7 44 50 0c       	movzwl 0xc(%rax,%rdx,2),%eax
  40301d:	66 85 c0             	test   %ax,%ax
  403020:	0f 95 c0             	setne  %al
  403023:	0f b6 c0             	movzbl %al,%eax
  403026:	01 45 90             	add    %eax,-0x70(%rbp)
  403029:	83 45 8c 01          	addl   $0x1,-0x74(%rbp)
  40302d:	83 7d 8c 01          	cmpl   $0x1,-0x74(%rbp)
  403031:	76 da                	jbe    40300d <__llvm_profile_merge_from_buffer+0x176>
  403033:	83 7d 90 00          	cmpl   $0x0,-0x70(%rbp)
  403037:	74 28                	je     403061 <__llvm_profile_merge_from_buffer+0x1ca>
  403039:	48 8b 05 80 d5 20 00 	mov    0x20d580(%rip),%rax        # 6105c0 <VPMergeHook>
  403040:	48 8b 4d a0          	mov    -0x60(%rbp),%rcx
  403044:	48 8b 55 a8          	mov    -0x58(%rbp),%rdx
  403048:	48 89 ce             	mov    %rcx,%rsi
  40304b:	48 89 d7             	mov    %rdx,%rdi
  40304e:	ff d0                	callq  *%rax
  403050:	48 8b 45 a8          	mov    -0x58(%rbp),%rax
  403054:	8b 00                	mov    (%rax),%eax
  403056:	89 c0                	mov    %eax,%eax
  403058:	48 01 45 a8          	add    %rax,-0x58(%rbp)
  40305c:	eb 04                	jmp    403062 <__llvm_profile_merge_from_buffer+0x1cb>
  40305e:	90                   	nop
  40305f:	eb 01                	jmp    403062 <__llvm_profile_merge_from_buffer+0x1cb>
  403061:	90                   	nop
  403062:	48 83 45 98 30       	addq   $0x30,-0x68(%rbp)
  403067:	48 83 45 a0 30       	addq   $0x30,-0x60(%rbp)
  40306c:	48 8b 45 98          	mov    -0x68(%rbp),%rax
  403070:	48 3b 45 c0          	cmp    -0x40(%rbp),%rax
  403074:	0f 82 df fe ff ff    	jb     402f59 <__llvm_profile_merge_from_buffer+0xc2>
  40307a:	90                   	nop
  40307b:	48 81 c4 88 00 00 00 	add    $0x88,%rsp
  403082:	5b                   	pop    %rbx
  403083:	5d                   	pop    %rbp
  403084:	c3                   	retq   

0000000000403085 <lprofMergeValueProfData>:
  403085:	55                   	push   %rbp
  403086:	48 89 e5             	mov    %rsp,%rbp
  403089:	48 83 ec 40          	sub    $0x40,%rsp
  40308d:	48 89 7d c8          	mov    %rdi,-0x38(%rbp)
  403091:	48 89 75 c0          	mov    %rsi,-0x40(%rbp)
  403095:	c7 45 e8 00 00 00 00 	movl   $0x0,-0x18(%rbp)
  40309c:	48 8b 45 c8          	mov    -0x38(%rbp),%rax
  4030a0:	48 89 c7             	mov    %rax,%rdi
  4030a3:	e8 3f 13 00 00       	callq  4043e7 <getFirstValueProfRecord>
  4030a8:	48 89 45 f0          	mov    %rax,-0x10(%rbp)
  4030ac:	c7 45 dc 00 00 00 00 	movl   $0x0,-0x24(%rbp)
  4030b3:	e9 a9 00 00 00       	jmpq   403161 <lprofMergeValueProfData+0xdc>
  4030b8:	48 8b 45 f0          	mov    -0x10(%rbp),%rax
  4030bc:	48 89 c7             	mov    %rax,%rdi
  4030bf:	e8 86 12 00 00       	callq  40434a <getValueProfRecordValueData>
  4030c4:	48 89 45 f8          	mov    %rax,-0x8(%rbp)
  4030c8:	c7 45 ec 00 00 00 00 	movl   $0x0,-0x14(%rbp)
  4030cf:	c7 45 e0 00 00 00 00 	movl   $0x0,-0x20(%rbp)
  4030d6:	eb 69                	jmp    403141 <lprofMergeValueProfData+0xbc>
  4030d8:	48 8b 55 f0          	mov    -0x10(%rbp),%rdx
  4030dc:	8b 45 e0             	mov    -0x20(%rbp),%eax
  4030df:	0f b6 44 02 08       	movzbl 0x8(%rdx,%rax,1),%eax
  4030e4:	88 45 db             	mov    %al,-0x25(%rbp)
  4030e7:	c7 45 e4 00 00 00 00 	movl   $0x0,-0x1c(%rbp)
  4030ee:	eb 40                	jmp    403130 <lprofMergeValueProfData+0xab>
  4030f0:	8b 45 ec             	mov    -0x14(%rbp),%eax
  4030f3:	48 c1 e0 04          	shl    $0x4,%rax
  4030f7:	48 89 c2             	mov    %rax,%rdx
  4030fa:	48 8b 45 f8          	mov    -0x8(%rbp),%rax
  4030fe:	48 01 d0             	add    %rdx,%rax
  403101:	48 8b 48 08          	mov    0x8(%rax),%rcx
  403105:	8b 45 ec             	mov    -0x14(%rbp),%eax
  403108:	48 c1 e0 04          	shl    $0x4,%rax
  40310c:	48 89 c2             	mov    %rax,%rdx
  40310f:	48 8b 45 f8          	mov    -0x8(%rbp),%rax
  403113:	48 01 d0             	add    %rdx,%rax
  403116:	48 8b 00             	mov    (%rax),%rax
  403119:	8b 55 e8             	mov    -0x18(%rbp),%edx
  40311c:	48 8b 75 c0          	mov    -0x40(%rbp),%rsi
  403120:	48 89 c7             	mov    %rax,%rdi
  403123:	e8 72 19 00 00       	callq  404a9a <__llvm_profile_instrument_target_value>
  403128:	83 45 ec 01          	addl   $0x1,-0x14(%rbp)
  40312c:	83 45 e4 01          	addl   $0x1,-0x1c(%rbp)
  403130:	0f b6 45 db          	movzbl -0x25(%rbp),%eax
  403134:	39 45 e4             	cmp    %eax,-0x1c(%rbp)
  403137:	72 b7                	jb     4030f0 <lprofMergeValueProfData+0x6b>
  403139:	83 45 e8 01          	addl   $0x1,-0x18(%rbp)
  40313d:	83 45 e0 01          	addl   $0x1,-0x20(%rbp)
  403141:	48 8b 45 f0          	mov    -0x10(%rbp),%rax
  403145:	8b 40 04             	mov    0x4(%rax),%eax
  403148:	39 45 e0             	cmp    %eax,-0x20(%rbp)
  40314b:	72 8b                	jb     4030d8 <lprofMergeValueProfData+0x53>
  40314d:	48 8b 45 f0          	mov    -0x10(%rbp),%rax
  403151:	48 89 c7             	mov    %rax,%rdi
  403154:	e8 55 12 00 00       	callq  4043ae <getValueProfRecordNext>
  403159:	48 89 45 f0          	mov    %rax,-0x10(%rbp)
  40315d:	83 45 dc 01          	addl   $0x1,-0x24(%rbp)
  403161:	48 8b 45 c8          	mov    -0x38(%rbp),%rax
  403165:	8b 40 04             	mov    0x4(%rax),%eax
  403168:	39 45 dc             	cmp    %eax,-0x24(%rbp)
  40316b:	0f 82 47 ff ff ff    	jb     4030b8 <lprofMergeValueProfData+0x33>
  403171:	90                   	nop
  403172:	c9                   	leaveq 
  403173:	c3                   	retq   

0000000000403174 <lprofBufferWriter>:
  403174:	55                   	push   %rbp
  403175:	48 89 e5             	mov    %rsp,%rbp
  403178:	48 83 ec 40          	sub    $0x40,%rsp
  40317c:	48 89 7d d8          	mov    %rdi,-0x28(%rbp)
  403180:	48 89 75 d0          	mov    %rsi,-0x30(%rbp)
  403184:	89 55 cc             	mov    %edx,-0x34(%rbp)
  403187:	48 8b 45 d8          	mov    -0x28(%rbp),%rax
  40318b:	48 83 c0 08          	add    $0x8,%rax
  40318f:	48 89 45 f0          	mov    %rax,-0x10(%rbp)
  403193:	c7 45 ec 00 00 00 00 	movl   $0x0,-0x14(%rbp)
  40319a:	e9 b2 00 00 00       	jmpq   403251 <lprofBufferWriter+0xdd>
  40319f:	8b 55 ec             	mov    -0x14(%rbp),%edx
  4031a2:	48 89 d0             	mov    %rdx,%rax
  4031a5:	48 01 c0             	add    %rax,%rax
  4031a8:	48 01 d0             	add    %rdx,%rax
  4031ab:	48 c1 e0 03          	shl    $0x3,%rax
  4031af:	48 89 c2             	mov    %rax,%rdx
  4031b2:	48 8b 45 d0          	mov    -0x30(%rbp),%rax
  4031b6:	48 01 d0             	add    %rdx,%rax
  4031b9:	48 8b 48 08          	mov    0x8(%rax),%rcx
  4031bd:	8b 55 ec             	mov    -0x14(%rbp),%edx
  4031c0:	48 89 d0             	mov    %rdx,%rax
  4031c3:	48 01 c0             	add    %rax,%rax
  4031c6:	48 01 d0             	add    %rdx,%rax
  4031c9:	48 c1 e0 03          	shl    $0x3,%rax
  4031cd:	48 89 c2             	mov    %rax,%rdx
  4031d0:	48 8b 45 d0          	mov    -0x30(%rbp),%rax
  4031d4:	48 01 d0             	add    %rdx,%rax
  4031d7:	48 8b 40 10          	mov    0x10(%rax),%rax
  4031db:	48 0f af c1          	imul   %rcx,%rax
  4031df:	48 89 45 f8          	mov    %rax,-0x8(%rbp)
  4031e3:	8b 55 ec             	mov    -0x14(%rbp),%edx
  4031e6:	48 89 d0             	mov    %rdx,%rax
  4031e9:	48 01 c0             	add    %rax,%rax
  4031ec:	48 01 d0             	add    %rdx,%rax
  4031ef:	48 c1 e0 03          	shl    $0x3,%rax
  4031f3:	48 89 c2             	mov    %rax,%rdx
  4031f6:	48 8b 45 d0          	mov    -0x30(%rbp),%rax
  4031fa:	48 01 d0             	add    %rdx,%rax
  4031fd:	48 8b 00             	mov    (%rax),%rax
  403200:	48 85 c0             	test   %rax,%rax
  403203:	74 33                	je     403238 <lprofBufferWriter+0xc4>
  403205:	8b 55 ec             	mov    -0x14(%rbp),%edx
  403208:	48 89 d0             	mov    %rdx,%rax
  40320b:	48 01 c0             	add    %rax,%rax
  40320e:	48 01 d0             	add    %rdx,%rax
  403211:	48 c1 e0 03          	shl    $0x3,%rax
  403215:	48 89 c2             	mov    %rax,%rdx
  403218:	48 8b 45 d0          	mov    -0x30(%rbp),%rax
  40321c:	48 01 d0             	add    %rdx,%rax
  40321f:	48 8b 08             	mov    (%rax),%rcx
  403222:	48 8b 45 f0          	mov    -0x10(%rbp),%rax
  403226:	48 8b 00             	mov    (%rax),%rax
  403229:	48 8b 55 f8          	mov    -0x8(%rbp),%rdx
  40322d:	48 89 ce             	mov    %rcx,%rsi
  403230:	48 89 c7             	mov    %rax,%rdi
  403233:	e8 e8 db ff ff       	callq  400e20 <memcpy@plt>
  403238:	48 8b 45 f0          	mov    -0x10(%rbp),%rax
  40323c:	48 8b 10             	mov    (%rax),%rdx
  40323f:	48 8b 45 f8          	mov    -0x8(%rbp),%rax
  403243:	48 01 c2             	add    %rax,%rdx
  403246:	48 8b 45 f0          	mov    -0x10(%rbp),%rax
  40324a:	48 89 10             	mov    %rdx,(%rax)
  40324d:	83 45 ec 01          	addl   $0x1,-0x14(%rbp)
  403251:	8b 45 ec             	mov    -0x14(%rbp),%eax
  403254:	3b 45 cc             	cmp    -0x34(%rbp),%eax
  403257:	0f 82 42 ff ff ff    	jb     40319f <lprofBufferWriter+0x2b>
  40325d:	b8 00 00 00 00       	mov    $0x0,%eax
  403262:	c9                   	leaveq 
  403263:	c3                   	retq   

0000000000403264 <llvmInitBufferIO>:
  403264:	55                   	push   %rbp
  403265:	48 89 e5             	mov    %rsp,%rbp
  403268:	48 89 7d f8          	mov    %rdi,-0x8(%rbp)
  40326c:	48 89 75 f0          	mov    %rsi,-0x10(%rbp)
  403270:	48 89 55 e8          	mov    %rdx,-0x18(%rbp)
  403274:	89 4d e4             	mov    %ecx,-0x1c(%rbp)
  403277:	48 8b 45 f8          	mov    -0x8(%rbp),%rax
  40327b:	48 8b 55 f0          	mov    -0x10(%rbp),%rdx
  40327f:	48 89 10             	mov    %rdx,(%rax)
  403282:	48 8b 45 f8          	mov    -0x8(%rbp),%rax
  403286:	c7 40 08 00 00 00 00 	movl   $0x0,0x8(%rax)
  40328d:	48 8b 45 f8          	mov    -0x8(%rbp),%rax
  403291:	48 8b 55 e8          	mov    -0x18(%rbp),%rdx
  403295:	48 89 50 10          	mov    %rdx,0x10(%rax)
  403299:	48 8b 45 f8          	mov    -0x8(%rbp),%rax
  40329d:	8b 55 e4             	mov    -0x1c(%rbp),%edx
  4032a0:	89 50 18             	mov    %edx,0x18(%rax)
  4032a3:	48 8b 45 f8          	mov    -0x8(%rbp),%rax
  4032a7:	c7 40 1c 00 00 00 00 	movl   $0x0,0x1c(%rax)
  4032ae:	90                   	nop
  4032af:	5d                   	pop    %rbp
  4032b0:	c3                   	retq   

00000000004032b1 <lprofCreateBufferIO>:
  4032b1:	55                   	push   %rbp
  4032b2:	48 89 e5             	mov    %rsp,%rbp
  4032b5:	48 83 ec 18          	sub    $0x18,%rsp
  4032b9:	48 89 7d e8          	mov    %rdi,-0x18(%rbp)
  4032bd:	48 8b 05 64 b1 20 00 	mov    0x20b164(%rip),%rax        # 60e428 <DynamicBufferIOBuffer>
  4032c4:	48 89 45 f8          	mov    %rax,-0x8(%rbp)
  4032c8:	8b 05 62 b1 20 00    	mov    0x20b162(%rip),%eax        # 60e430 <VPBufferSize>
  4032ce:	89 45 f4             	mov    %eax,-0xc(%rbp)
  4032d1:	48 83 7d f8 00       	cmpq   $0x0,-0x8(%rbp)
  4032d6:	75 12                	jne    4032ea <lprofCreateBufferIO+0x39>
  4032d8:	48 8d 05 81 b1 20 00 	lea    0x20b181(%rip),%rax        # 60e460 <BufferIOBuffer>
  4032df:	48 89 45 f8          	mov    %rax,-0x8(%rbp)
  4032e3:	c7 45 f4 00 20 00 00 	movl   $0x2000,-0xc(%rbp)
  4032ea:	8b 4d f4             	mov    -0xc(%rbp),%ecx
  4032ed:	48 8b 55 f8          	mov    -0x8(%rbp),%rdx
  4032f1:	48 8b 45 e8          	mov    -0x18(%rbp),%rax
  4032f5:	48 89 c6             	mov    %rax,%rsi
  4032f8:	48 8d 3d 41 b1 20 00 	lea    0x20b141(%rip),%rdi        # 60e440 <TheBufferIO>
  4032ff:	e8 60 ff ff ff       	callq  403264 <llvmInitBufferIO>
  403304:	48 8d 05 35 b1 20 00 	lea    0x20b135(%rip),%rax        # 60e440 <TheBufferIO>
  40330b:	c9                   	leaveq 
  40330c:	c3                   	retq   

000000000040330d <lprofDeleteBufferIO>:
  40330d:	55                   	push   %rbp
  40330e:	48 89 e5             	mov    %rsp,%rbp
  403311:	48 83 ec 10          	sub    $0x10,%rsp
  403315:	48 89 7d f8          	mov    %rdi,-0x8(%rbp)
  403319:	48 8b 45 f8          	mov    -0x8(%rbp),%rax
  40331d:	8b 40 08             	mov    0x8(%rax),%eax
  403320:	85 c0                	test   %eax,%eax
  403322:	74 13                	je     403337 <lprofDeleteBufferIO+0x2a>
  403324:	48 8b 05 f5 b0 20 00 	mov    0x20b0f5(%rip),%rax        # 60e420 <FreeHook>
  40332b:	48 8b 55 f8          	mov    -0x8(%rbp),%rdx
  40332f:	48 8b 12             	mov    (%rdx),%rdx
  403332:	48 89 d7             	mov    %rdx,%rdi
  403335:	ff d0                	callq  *%rax
  403337:	48 8b 05 ea b0 20 00 	mov    0x20b0ea(%rip),%rax        # 60e428 <DynamicBufferIOBuffer>
  40333e:	48 85 c0             	test   %rax,%rax
  403341:	74 28                	je     40336b <lprofDeleteBufferIO+0x5e>
  403343:	48 8b 05 d6 b0 20 00 	mov    0x20b0d6(%rip),%rax        # 60e420 <FreeHook>
  40334a:	48 8b 15 d7 b0 20 00 	mov    0x20b0d7(%rip),%rdx        # 60e428 <DynamicBufferIOBuffer>
  403351:	48 89 d7             	mov    %rdx,%rdi
  403354:	ff d0                	callq  *%rax
  403356:	48 c7 05 c7 b0 20 00 	movq   $0x0,0x20b0c7(%rip)        # 60e428 <DynamicBufferIOBuffer>
  40335d:	00 00 00 00 
  403361:	c7 05 c5 b0 20 00 00 	movl   $0x0,0x20b0c5(%rip)        # 60e430 <VPBufferSize>
  403368:	00 00 00 
  40336b:	90                   	nop
  40336c:	c9                   	leaveq 
  40336d:	c3                   	retq   

000000000040336e <lprofBufferIOWrite>:
  40336e:	55                   	push   %rbp
  40336f:	48 89 e5             	mov    %rsp,%rbp
  403372:	48 83 ec 60          	sub    $0x60,%rsp
  403376:	48 89 7d b8          	mov    %rdi,-0x48(%rbp)
  40337a:	48 89 75 b0          	mov    %rsi,-0x50(%rbp)
  40337e:	89 55 ac             	mov    %edx,-0x54(%rbp)
  403381:	64 48 8b 04 25 28 00 	mov    %fs:0x28,%rax
  403388:	00 00 
  40338a:	48 89 45 f8          	mov    %rax,-0x8(%rbp)
  40338e:	31 c0                	xor    %eax,%eax
  403390:	48 8b 45 b8          	mov    -0x48(%rbp),%rax
  403394:	8b 50 1c             	mov    0x1c(%rax),%edx
  403397:	8b 45 ac             	mov    -0x54(%rbp),%eax
  40339a:	01 c2                	add    %eax,%edx
  40339c:	48 8b 45 b8          	mov    -0x48(%rbp),%rax
  4033a0:	8b 40 18             	mov    0x18(%rax),%eax
  4033a3:	39 c2                	cmp    %eax,%edx
  4033a5:	76 1a                	jbe    4033c1 <lprofBufferIOWrite+0x53>
  4033a7:	48 8b 45 b8          	mov    -0x48(%rbp),%rax
  4033ab:	48 89 c7             	mov    %rax,%rdi
  4033ae:	e8 d7 00 00 00       	callq  40348a <lprofBufferIOFlush>
  4033b3:	85 c0                	test   %eax,%eax
  4033b5:	74 0a                	je     4033c1 <lprofBufferIOWrite+0x53>
  4033b7:	b8 ff ff ff ff       	mov    $0xffffffff,%eax
  4033bc:	e9 b3 00 00 00       	jmpq   403474 <lprofBufferIOWrite+0x106>
  4033c1:	48 8b 45 b0          	mov    -0x50(%rbp),%rax
  4033c5:	48 89 45 e0          	mov    %rax,-0x20(%rbp)
  4033c9:	48 c7 45 e8 01 00 00 	movq   $0x1,-0x18(%rbp)
  4033d0:	00 
  4033d1:	8b 45 ac             	mov    -0x54(%rbp),%eax
  4033d4:	48 89 45 f0          	mov    %rax,-0x10(%rbp)
  4033d8:	48 8b 45 b8          	mov    -0x48(%rbp),%rax
  4033dc:	8b 40 18             	mov    0x18(%rax),%eax
  4033df:	39 45 ac             	cmp    %eax,-0x54(%rbp)
  4033e2:	76 2a                	jbe    40340e <lprofBufferIOWrite+0xa0>
  4033e4:	48 8b 45 b8          	mov    -0x48(%rbp),%rax
  4033e8:	48 8b 00             	mov    (%rax),%rax
  4033eb:	48 8b 00             	mov    (%rax),%rax
  4033ee:	48 8b 55 b8          	mov    -0x48(%rbp),%rdx
  4033f2:	48 8b 0a             	mov    (%rdx),%rcx
  4033f5:	48 8d 75 e0          	lea    -0x20(%rbp),%rsi
  4033f9:	ba 01 00 00 00       	mov    $0x1,%edx
  4033fe:	48 89 cf             	mov    %rcx,%rdi
  403401:	ff d0                	callq  *%rax
  403403:	85 c0                	test   %eax,%eax
  403405:	74 68                	je     40346f <lprofBufferIOWrite+0x101>
  403407:	b8 ff ff ff ff       	mov    $0xffffffff,%eax
  40340c:	eb 66                	jmp    403474 <lprofBufferIOWrite+0x106>
  40340e:	48 8b 45 b8          	mov    -0x48(%rbp),%rax
  403412:	48 8b 50 10          	mov    0x10(%rax),%rdx
  403416:	48 8b 45 b8          	mov    -0x48(%rbp),%rax
  40341a:	8b 40 1c             	mov    0x1c(%rax),%eax
  40341d:	89 c0                	mov    %eax,%eax
  40341f:	48 01 d0             	add    %rdx,%rax
  403422:	48 89 45 c8          	mov    %rax,-0x38(%rbp)
  403426:	48 8b 55 c8          	mov    -0x38(%rbp),%rdx
  40342a:	48 8d 45 d0          	lea    -0x30(%rbp),%rax
  40342e:	48 89 d6             	mov    %rdx,%rsi
  403431:	48 89 c7             	mov    %rax,%rdi
  403434:	e8 98 1d 00 00       	callq  4051d1 <initBufferWriter>
  403439:	48 8d 4d e0          	lea    -0x20(%rbp),%rcx
  40343d:	48 8d 45 d0          	lea    -0x30(%rbp),%rax
  403441:	ba 01 00 00 00       	mov    $0x1,%edx
  403446:	48 89 ce             	mov    %rcx,%rsi
  403449:	48 89 c7             	mov    %rax,%rdi
  40344c:	e8 23 fd ff ff       	callq  403174 <lprofBufferWriter>
  403451:	48 8b 45 d8          	mov    -0x28(%rbp),%rax
  403455:	48 89 c2             	mov    %rax,%rdx
  403458:	48 8b 45 b8          	mov    -0x48(%rbp),%rax
  40345c:	48 8b 40 10          	mov    0x10(%rax),%rax
  403460:	48 29 c2             	sub    %rax,%rdx
  403463:	48 89 d0             	mov    %rdx,%rax
  403466:	89 c2                	mov    %eax,%edx
  403468:	48 8b 45 b8          	mov    -0x48(%rbp),%rax
  40346c:	89 50 1c             	mov    %edx,0x1c(%rax)
  40346f:	b8 00 00 00 00       	mov    $0x0,%eax
  403474:	48 8b 4d f8          	mov    -0x8(%rbp),%rcx
  403478:	64 48 33 0c 25 28 00 	xor    %fs:0x28,%rcx
  40347f:	00 00 
  403481:	74 05                	je     403488 <lprofBufferIOWrite+0x11a>
  403483:	e8 08 da ff ff       	callq  400e90 <__stack_chk_fail@plt>
  403488:	c9                   	leaveq 
  403489:	c3                   	retq   

000000000040348a <lprofBufferIOFlush>:
  40348a:	55                   	push   %rbp
  40348b:	48 89 e5             	mov    %rsp,%rbp
  40348e:	48 83 ec 30          	sub    $0x30,%rsp
  403492:	48 89 7d d8          	mov    %rdi,-0x28(%rbp)
  403496:	64 48 8b 04 25 28 00 	mov    %fs:0x28,%rax
  40349d:	00 00 
  40349f:	48 89 45 f8          	mov    %rax,-0x8(%rbp)
  4034a3:	31 c0                	xor    %eax,%eax
  4034a5:	48 8b 45 d8          	mov    -0x28(%rbp),%rax
  4034a9:	8b 40 1c             	mov    0x1c(%rax),%eax
  4034ac:	85 c0                	test   %eax,%eax
  4034ae:	74 56                	je     403506 <lprofBufferIOFlush+0x7c>
  4034b0:	48 8b 45 d8          	mov    -0x28(%rbp),%rax
  4034b4:	48 8b 40 10          	mov    0x10(%rax),%rax
  4034b8:	48 89 45 e0          	mov    %rax,-0x20(%rbp)
  4034bc:	48 c7 45 e8 01 00 00 	movq   $0x1,-0x18(%rbp)
  4034c3:	00 
  4034c4:	48 8b 45 d8          	mov    -0x28(%rbp),%rax
  4034c8:	8b 40 1c             	mov    0x1c(%rax),%eax
  4034cb:	89 c0                	mov    %eax,%eax
  4034cd:	48 89 45 f0          	mov    %rax,-0x10(%rbp)
  4034d1:	48 8b 45 d8          	mov    -0x28(%rbp),%rax
  4034d5:	48 8b 00             	mov    (%rax),%rax
  4034d8:	48 8b 00             	mov    (%rax),%rax
  4034db:	48 8b 55 d8          	mov    -0x28(%rbp),%rdx
  4034df:	48 8b 0a             	mov    (%rdx),%rcx
  4034e2:	48 8d 75 e0          	lea    -0x20(%rbp),%rsi
  4034e6:	ba 01 00 00 00       	mov    $0x1,%edx
  4034eb:	48 89 cf             	mov    %rcx,%rdi
  4034ee:	ff d0                	callq  *%rax
  4034f0:	85 c0                	test   %eax,%eax
  4034f2:	74 07                	je     4034fb <lprofBufferIOFlush+0x71>
  4034f4:	b8 ff ff ff ff       	mov    $0xffffffff,%eax
  4034f9:	eb 10                	jmp    40350b <lprofBufferIOFlush+0x81>
  4034fb:	48 8b 45 d8          	mov    -0x28(%rbp),%rax
  4034ff:	c7 40 1c 00 00 00 00 	movl   $0x0,0x1c(%rax)
  403506:	b8 00 00 00 00       	mov    $0x0,%eax
  40350b:	48 8b 4d f8          	mov    -0x8(%rbp),%rcx
  40350f:	64 48 33 0c 25 28 00 	xor    %fs:0x28,%rcx
  403516:	00 00 
  403518:	74 05                	je     40351f <lprofBufferIOFlush+0x95>
  40351a:	e8 71 d9 ff ff       	callq  400e90 <__stack_chk_fail@plt>
  40351f:	c9                   	leaveq 
  403520:	c3                   	retq   

0000000000403521 <writeOneValueProfData>:
  403521:	55                   	push   %rbp
  403522:	48 89 e5             	mov    %rsp,%rbp
  403525:	48 83 c4 80          	add    $0xffffffffffffff80,%rsp
  403529:	48 89 7d 98          	mov    %rdi,-0x68(%rbp)
  40352d:	48 89 75 90          	mov    %rsi,-0x70(%rbp)
  403531:	48 89 55 88          	mov    %rdx,-0x78(%rbp)
  403535:	64 48 8b 04 25 28 00 	mov    %fs:0x28,%rax
  40353c:	00 00 
  40353e:	48 89 45 f8          	mov    %rax,-0x8(%rbp)
  403542:	31 c0                	xor    %eax,%eax
  403544:	c7 45 ac 00 00 00 00 	movl   $0x0,-0x54(%rbp)
  40354b:	c7 45 a0 00 00 00 00 	movl   $0x0,-0x60(%rbp)
  403552:	e9 a5 00 00 00       	jmpq   4035fc <writeOneValueProfData+0xdb>
  403557:	48 8b 45 88          	mov    -0x78(%rbp),%rax
  40355b:	8b 55 a0             	mov    -0x60(%rbp),%edx
  40355e:	48 83 c2 10          	add    $0x10,%rdx
  403562:	0f b7 44 50 0c       	movzwl 0xc(%rax,%rdx,2),%eax
  403567:	66 85 c0             	test   %ax,%ax
  40356a:	75 0e                	jne    40357a <writeOneValueProfData+0x59>
  40356c:	8b 45 a0             	mov    -0x60(%rbp),%eax
  40356f:	48 c7 44 c5 e0 00 00 	movq   $0x0,-0x20(%rbp,%rax,8)
  403576:	00 00 
  403578:	eb 7e                	jmp    4035f8 <writeOneValueProfData+0xd7>
  40357a:	48 8b 45 90          	mov    -0x70(%rbp),%rax
  40357e:	48 8b 40 08          	mov    0x8(%rax),%rax
  403582:	48 8b 55 88          	mov    -0x78(%rbp),%rdx
  403586:	8b 4d a0             	mov    -0x60(%rbp),%ecx
  403589:	48 83 c1 10          	add    $0x10,%rcx
  40358d:	0f b7 54 4a 0c       	movzwl 0xc(%rdx,%rcx,2),%edx
  403592:	0f b7 d2             	movzwl %dx,%edx
  403595:	89 d7                	mov    %edx,%edi
  403597:	ff d0                	callq  *%rax
  403599:	83 e8 08             	sub    $0x8,%eax
  40359c:	89 45 bc             	mov    %eax,-0x44(%rbp)
  40359f:	8b 45 bc             	mov    -0x44(%rbp),%eax
  4035a2:	48 8d 50 0f          	lea    0xf(%rax),%rdx
  4035a6:	b8 10 00 00 00       	mov    $0x10,%eax
  4035ab:	48 83 e8 01          	sub    $0x1,%rax
  4035af:	48 01 d0             	add    %rdx,%rax
  4035b2:	be 10 00 00 00       	mov    $0x10,%esi
  4035b7:	ba 00 00 00 00       	mov    $0x0,%edx
  4035bc:	48 f7 f6             	div    %rsi
  4035bf:	48 6b c0 10          	imul   $0x10,%rax,%rax
  4035c3:	48 29 c4             	sub    %rax,%rsp
  4035c6:	48 89 e0             	mov    %rsp,%rax
  4035c9:	48 83 c0 0f          	add    $0xf,%rax
  4035cd:	48 c1 e8 04          	shr    $0x4,%rax
  4035d1:	48 c1 e0 04          	shl    $0x4,%rax
  4035d5:	48 89 c2             	mov    %rax,%rdx
  4035d8:	8b 45 a0             	mov    -0x60(%rbp),%eax
  4035db:	48 89 54 c5 e0       	mov    %rdx,-0x20(%rbp,%rax,8)
  4035e0:	8b 55 bc             	mov    -0x44(%rbp),%edx
  4035e3:	8b 45 a0             	mov    -0x60(%rbp),%eax
  4035e6:	48 8b 44 c5 e0       	mov    -0x20(%rbp,%rax,8),%rax
  4035eb:	be 00 00 00 00       	mov    $0x0,%esi
  4035f0:	48 89 c7             	mov    %rax,%rdi
  4035f3:	e8 d8 d7 ff ff       	callq  400dd0 <memset@plt>
  4035f8:	83 45 a0 01          	addl   $0x1,-0x60(%rbp)
  4035fc:	83 7d a0 01          	cmpl   $0x1,-0x60(%rbp)
  403600:	0f 86 51 ff ff ff    	jbe    403557 <writeOneValueProfData+0x36>
  403606:	48 8b 45 90          	mov    -0x70(%rbp),%rax
  40360a:	48 8b 00             	mov    (%rax),%rax
  40360d:	48 8d 4d e0          	lea    -0x20(%rbp),%rcx
  403611:	48 8b 55 88          	mov    -0x78(%rbp),%rdx
  403615:	48 89 ce             	mov    %rcx,%rsi
  403618:	48 89 d7             	mov    %rdx,%rdi
  40361b:	ff d0                	callq  *%rax
  40361d:	89 45 ac             	mov    %eax,-0x54(%rbp)
  403620:	83 7d ac 00          	cmpl   $0x0,-0x54(%rbp)
  403624:	75 0a                	jne    403630 <writeOneValueProfData+0x10f>
  403626:	b8 00 00 00 00       	mov    $0x0,%eax
  40362b:	e9 f1 01 00 00       	jmpq   403821 <writeOneValueProfData+0x300>
  403630:	48 8b 45 90          	mov    -0x70(%rbp),%rax
  403634:	48 8b 40 20          	mov    0x20(%rax),%rax
  403638:	ff d0                	callq  *%rax
  40363a:	89 45 cc             	mov    %eax,-0x34(%rbp)
  40363d:	8b 45 ac             	mov    -0x54(%rbp),%eax
  403640:	89 45 d0             	mov    %eax,-0x30(%rbp)
  403643:	48 8d 4d cc          	lea    -0x34(%rbp),%rcx
  403647:	48 8b 45 98          	mov    -0x68(%rbp),%rax
  40364b:	ba 08 00 00 00       	mov    $0x8,%edx
  403650:	48 89 ce             	mov    %rcx,%rsi
  403653:	48 89 c7             	mov    %rax,%rdi
  403656:	e8 13 fd ff ff       	callq  40336e <lprofBufferIOWrite>
  40365b:	85 c0                	test   %eax,%eax
  40365d:	74 0a                	je     403669 <writeOneValueProfData+0x148>
  40365f:	b8 ff ff ff ff       	mov    $0xffffffff,%eax
  403664:	e9 b8 01 00 00       	jmpq   403821 <writeOneValueProfData+0x300>
  403669:	48 8b 45 90          	mov    -0x70(%rbp),%rax
  40366d:	48 8b 40 10          	mov    0x10(%rax),%rax
  403671:	48 8d 55 cc          	lea    -0x34(%rbp),%rdx
  403675:	48 89 d7             	mov    %rdx,%rdi
  403678:	ff d0                	callq  *%rax
  40367a:	48 89 c2             	mov    %rax,%rdx
  40367d:	48 8d 45 cc          	lea    -0x34(%rbp),%rax
  403681:	48 83 c0 08          	add    $0x8,%rax
  403685:	48 39 c2             	cmp    %rax,%rdx
  403688:	74 0a                	je     403694 <writeOneValueProfData+0x173>
  40368a:	b8 ff ff ff ff       	mov    $0xffffffff,%eax
  40368f:	e9 8d 01 00 00       	jmpq   403821 <writeOneValueProfData+0x300>
  403694:	c7 45 a0 00 00 00 00 	movl   $0x0,-0x60(%rbp)
  40369b:	e9 72 01 00 00       	jmpq   403812 <writeOneValueProfData+0x2f1>
  4036a0:	c7 45 b0 08 00 00 00 	movl   $0x8,-0x50(%rbp)
  4036a7:	48 8b 45 88          	mov    -0x78(%rbp),%rax
  4036ab:	8b 55 a0             	mov    -0x60(%rbp),%edx
  4036ae:	48 83 c2 10          	add    $0x10,%rdx
  4036b2:	0f b7 44 50 0c       	movzwl 0xc(%rax,%rdx,2),%eax
  4036b7:	66 85 c0             	test   %ax,%ax
  4036ba:	0f 84 4d 01 00 00    	je     40380d <writeOneValueProfData+0x2ec>
  4036c0:	8b 45 a0             	mov    -0x60(%rbp),%eax
  4036c3:	89 45 d4             	mov    %eax,-0x2c(%rbp)
  4036c6:	48 8b 45 88          	mov    -0x78(%rbp),%rax
  4036ca:	8b 55 a0             	mov    -0x60(%rbp),%edx
  4036cd:	48 83 c2 10          	add    $0x10,%rdx
  4036d1:	0f b7 44 50 0c       	movzwl 0xc(%rax,%rdx,2),%eax
  4036d6:	0f b7 c0             	movzwl %ax,%eax
  4036d9:	89 45 d8             	mov    %eax,-0x28(%rbp)
  4036dc:	8b 55 b0             	mov    -0x50(%rbp),%edx
  4036df:	48 8d 4d d4          	lea    -0x2c(%rbp),%rcx
  4036e3:	48 8b 45 98          	mov    -0x68(%rbp),%rax
  4036e7:	48 89 ce             	mov    %rcx,%rsi
  4036ea:	48 89 c7             	mov    %rax,%rdi
  4036ed:	e8 7c fc ff ff       	callq  40336e <lprofBufferIOWrite>
  4036f2:	85 c0                	test   %eax,%eax
  4036f4:	74 0a                	je     403700 <writeOneValueProfData+0x1df>
  4036f6:	b8 ff ff ff ff       	mov    $0xffffffff,%eax
  4036fb:	e9 21 01 00 00       	jmpq   403821 <writeOneValueProfData+0x300>
  403700:	48 8b 45 90          	mov    -0x70(%rbp),%rax
  403704:	48 8b 40 08          	mov    0x8(%rax),%rax
  403708:	48 8b 55 88          	mov    -0x78(%rbp),%rdx
  40370c:	8b 4d a0             	mov    -0x60(%rbp),%ecx
  40370f:	48 83 c1 10          	add    $0x10,%rcx
  403713:	0f b7 54 4a 0c       	movzwl 0xc(%rdx,%rcx,2),%edx
  403718:	0f b7 d2             	movzwl %dx,%edx
  40371b:	89 d7                	mov    %edx,%edi
  40371d:	ff d0                	callq  *%rax
  40371f:	2b 45 b0             	sub    -0x50(%rbp),%eax
  403722:	89 45 b4             	mov    %eax,-0x4c(%rbp)
  403725:	8b 45 a0             	mov    -0x60(%rbp),%eax
  403728:	48 8b 4c c5 e0       	mov    -0x20(%rbp,%rax,8),%rcx
  40372d:	8b 55 b4             	mov    -0x4c(%rbp),%edx
  403730:	48 8b 45 98          	mov    -0x68(%rbp),%rax
  403734:	48 89 ce             	mov    %rcx,%rsi
  403737:	48 89 c7             	mov    %rax,%rdi
  40373a:	e8 2f fc ff ff       	callq  40336e <lprofBufferIOWrite>
  40373f:	85 c0                	test   %eax,%eax
  403741:	74 0a                	je     40374d <writeOneValueProfData+0x22c>
  403743:	b8 ff ff ff ff       	mov    $0xffffffff,%eax
  403748:	e9 d4 00 00 00       	jmpq   403821 <writeOneValueProfData+0x300>
  40374d:	c7 45 a4 00 00 00 00 	movl   $0x0,-0x5c(%rbp)
  403754:	e9 96 00 00 00       	jmpq   4037ef <writeOneValueProfData+0x2ce>
  403759:	48 c7 45 c0 00 00 00 	movq   $0x0,-0x40(%rbp)
  403760:	00 
  403761:	48 8b 45 90          	mov    -0x70(%rbp),%rax
  403765:	48 8b 40 18          	mov    0x18(%rax),%rax
  403769:	8b 4d a4             	mov    -0x5c(%rbp),%ecx
  40376c:	8b 55 a0             	mov    -0x60(%rbp),%edx
  40376f:	89 ce                	mov    %ecx,%esi
  403771:	89 d7                	mov    %edx,%edi
  403773:	ff d0                	callq  *%rax
  403775:	89 45 a8             	mov    %eax,-0x58(%rbp)
  403778:	83 7d a8 00          	cmpl   $0x0,-0x58(%rbp)
  40377c:	74 6c                	je     4037ea <writeOneValueProfData+0x2c9>
  40377e:	8b 05 dc 49 20 00    	mov    0x2049dc(%rip),%eax        # 608160 <VPDataArraySize>
  403784:	39 45 a8             	cmp    %eax,-0x58(%rbp)
  403787:	0f 46 45 a8          	cmovbe -0x58(%rbp),%eax
  40378b:	89 45 b8             	mov    %eax,-0x48(%rbp)
  40378e:	48 8b 45 90          	mov    -0x70(%rbp),%rax
  403792:	48 8b 40 28          	mov    0x28(%rax),%rax
  403796:	8b 4d b8             	mov    -0x48(%rbp),%ecx
  403799:	48 8b 55 c0          	mov    -0x40(%rbp),%rdx
  40379d:	8b 75 a4             	mov    -0x5c(%rbp),%esi
  4037a0:	8b 7d a0             	mov    -0x60(%rbp),%edi
  4037a3:	41 89 c8             	mov    %ecx,%r8d
  4037a6:	48 89 d1             	mov    %rdx,%rcx
  4037a9:	48 8d 15 b0 cc 20 00 	lea    0x20ccb0(%rip),%rdx        # 610460 <VPDataArray>
  4037b0:	ff d0                	callq  *%rax
  4037b2:	48 89 45 c0          	mov    %rax,-0x40(%rbp)
  4037b6:	8b 45 b8             	mov    -0x48(%rbp),%eax
  4037b9:	c1 e0 04             	shl    $0x4,%eax
  4037bc:	89 c2                	mov    %eax,%edx
  4037be:	48 8b 45 98          	mov    -0x68(%rbp),%rax
  4037c2:	48 8d 35 97 cc 20 00 	lea    0x20cc97(%rip),%rsi        # 610460 <VPDataArray>
  4037c9:	48 89 c7             	mov    %rax,%rdi
  4037cc:	e8 9d fb ff ff       	callq  40336e <lprofBufferIOWrite>
  4037d1:	85 c0                	test   %eax,%eax
  4037d3:	74 07                	je     4037dc <writeOneValueProfData+0x2bb>
  4037d5:	b8 ff ff ff ff       	mov    $0xffffffff,%eax
  4037da:	eb 45                	jmp    403821 <writeOneValueProfData+0x300>
  4037dc:	8b 45 b8             	mov    -0x48(%rbp),%eax
  4037df:	29 45 a8             	sub    %eax,-0x58(%rbp)
  4037e2:	83 7d a8 00          	cmpl   $0x0,-0x58(%rbp)
  4037e6:	75 96                	jne    40377e <writeOneValueProfData+0x25d>
  4037e8:	eb 01                	jmp    4037eb <writeOneValueProfData+0x2ca>
  4037ea:	90                   	nop
  4037eb:	83 45 a4 01          	addl   $0x1,-0x5c(%rbp)
  4037ef:	48 8b 45 88          	mov    -0x78(%rbp),%rax
  4037f3:	8b 55 a0             	mov    -0x60(%rbp),%edx
  4037f6:	48 83 c2 10          	add    $0x10,%rdx
  4037fa:	0f b7 44 50 0c       	movzwl 0xc(%rax,%rdx,2),%eax
  4037ff:	0f b7 c0             	movzwl %ax,%eax
  403802:	39 45 a4             	cmp    %eax,-0x5c(%rbp)
  403805:	0f 82 4e ff ff ff    	jb     403759 <writeOneValueProfData+0x238>
  40380b:	eb 01                	jmp    40380e <writeOneValueProfData+0x2ed>
  40380d:	90                   	nop
  40380e:	83 45 a0 01          	addl   $0x1,-0x60(%rbp)
  403812:	83 7d a0 01          	cmpl   $0x1,-0x60(%rbp)
  403816:	0f 86 84 fe ff ff    	jbe    4036a0 <writeOneValueProfData+0x17f>
  40381c:	b8 00 00 00 00       	mov    $0x0,%eax
  403821:	48 8b 75 f8          	mov    -0x8(%rbp),%rsi
  403825:	64 48 33 34 25 28 00 	xor    %fs:0x28,%rsi
  40382c:	00 00 
  40382e:	74 05                	je     403835 <writeOneValueProfData+0x314>
  403830:	e8 5b d6 ff ff       	callq  400e90 <__stack_chk_fail@plt>
  403835:	c9                   	leaveq 
  403836:	c3                   	retq   

0000000000403837 <writeValueProfData>:
  403837:	55                   	push   %rbp
  403838:	48 89 e5             	mov    %rsp,%rbp
  40383b:	48 83 ec 30          	sub    $0x30,%rsp
  40383f:	48 89 7d e8          	mov    %rdi,-0x18(%rbp)
  403843:	48 89 75 e0          	mov    %rsi,-0x20(%rbp)
  403847:	48 89 55 d8          	mov    %rdx,-0x28(%rbp)
  40384b:	48 89 4d d0          	mov    %rcx,-0x30(%rbp)
  40384f:	48 c7 45 f0 00 00 00 	movq   $0x0,-0x10(%rbp)
  403856:	00 
  403857:	48 83 7d e0 00       	cmpq   $0x0,-0x20(%rbp)
  40385c:	75 07                	jne    403865 <writeValueProfData+0x2e>
  40385e:	b8 00 00 00 00       	mov    $0x0,%eax
  403863:	eb 73                	jmp    4038d8 <writeValueProfData+0xa1>
  403865:	48 8b 45 e8          	mov    -0x18(%rbp),%rax
  403869:	48 89 c7             	mov    %rax,%rdi
  40386c:	e8 40 fa ff ff       	callq  4032b1 <lprofCreateBufferIO>
  403871:	48 89 45 f8          	mov    %rax,-0x8(%rbp)
  403875:	48 8b 45 d8          	mov    -0x28(%rbp),%rax
  403879:	48 89 45 f0          	mov    %rax,-0x10(%rbp)
  40387d:	eb 27                	jmp    4038a6 <writeValueProfData+0x6f>
  40387f:	48 8b 55 f0          	mov    -0x10(%rbp),%rdx
  403883:	48 8b 4d e0          	mov    -0x20(%rbp),%rcx
  403887:	48 8b 45 f8          	mov    -0x8(%rbp),%rax
  40388b:	48 89 ce             	mov    %rcx,%rsi
  40388e:	48 89 c7             	mov    %rax,%rdi
  403891:	e8 8b fc ff ff       	callq  403521 <writeOneValueProfData>
  403896:	85 c0                	test   %eax,%eax
  403898:	74 07                	je     4038a1 <writeValueProfData+0x6a>
  40389a:	b8 ff ff ff ff       	mov    $0xffffffff,%eax
  40389f:	eb 37                	jmp    4038d8 <writeValueProfData+0xa1>
  4038a1:	48 83 45 f0 30       	addq   $0x30,-0x10(%rbp)
  4038a6:	48 8b 45 f0          	mov    -0x10(%rbp),%rax
  4038aa:	48 3b 45 d0          	cmp    -0x30(%rbp),%rax
  4038ae:	72 cf                	jb     40387f <writeValueProfData+0x48>
  4038b0:	48 8b 45 f8          	mov    -0x8(%rbp),%rax
  4038b4:	48 89 c7             	mov    %rax,%rdi
  4038b7:	e8 ce fb ff ff       	callq  40348a <lprofBufferIOFlush>
  4038bc:	85 c0                	test   %eax,%eax
  4038be:	74 07                	je     4038c7 <writeValueProfData+0x90>
  4038c0:	b8 ff ff ff ff       	mov    $0xffffffff,%eax
  4038c5:	eb 11                	jmp    4038d8 <writeValueProfData+0xa1>
  4038c7:	48 8b 45 f8          	mov    -0x8(%rbp),%rax
  4038cb:	48 89 c7             	mov    %rax,%rdi
  4038ce:	e8 3a fa ff ff       	callq  40330d <lprofDeleteBufferIO>
  4038d3:	b8 00 00 00 00       	mov    $0x0,%eax
  4038d8:	c9                   	leaveq 
  4038d9:	c3                   	retq   

00000000004038da <lprofWriteData>:
  4038da:	55                   	push   %rbp
  4038db:	48 89 e5             	mov    %rsp,%rbp
  4038de:	48 83 ec 50          	sub    $0x50,%rsp
  4038e2:	48 89 7d c8          	mov    %rdi,-0x38(%rbp)
  4038e6:	48 89 75 c0          	mov    %rsi,-0x40(%rbp)
  4038ea:	89 55 bc             	mov    %edx,-0x44(%rbp)
  4038ed:	e8 c1 02 00 00       	callq  403bb3 <__llvm_profile_begin_data>
  4038f2:	48 89 45 d0          	mov    %rax,-0x30(%rbp)
  4038f6:	e8 c5 02 00 00       	callq  403bc0 <__llvm_profile_end_data>
  4038fb:	48 89 45 d8          	mov    %rax,-0x28(%rbp)
  4038ff:	e8 e3 02 00 00       	callq  403be7 <__llvm_profile_begin_counters>
  403904:	48 89 45 e0          	mov    %rax,-0x20(%rbp)
  403908:	e8 e7 02 00 00       	callq  403bf4 <__llvm_profile_end_counters>
  40390d:	48 89 45 e8          	mov    %rax,-0x18(%rbp)
  403911:	e8 b7 02 00 00       	callq  403bcd <__llvm_profile_begin_names>
  403916:	48 89 45 f0          	mov    %rax,-0x10(%rbp)
  40391a:	e8 bb 02 00 00       	callq  403bda <__llvm_profile_end_names>
  40391f:	48 89 45 f8          	mov    %rax,-0x8(%rbp)
  403923:	4c 8b 4d c0          	mov    -0x40(%rbp),%r9
  403927:	4c 8b 45 e8          	mov    -0x18(%rbp),%r8
  40392b:	48 8b 4d e0          	mov    -0x20(%rbp),%rcx
  40392f:	48 8b 55 d8          	mov    -0x28(%rbp),%rdx
  403933:	48 8b 75 d0          	mov    -0x30(%rbp),%rsi
  403937:	48 8b 45 c8          	mov    -0x38(%rbp),%rax
  40393b:	48 83 ec 08          	sub    $0x8,%rsp
  40393f:	8b 7d bc             	mov    -0x44(%rbp),%edi
  403942:	57                   	push   %rdi
  403943:	ff 75 f8             	pushq  -0x8(%rbp)
  403946:	ff 75 f0             	pushq  -0x10(%rbp)
  403949:	48 89 c7             	mov    %rax,%rdi
  40394c:	e8 06 00 00 00       	callq  403957 <lprofWriteDataImpl>
  403951:	48 83 c4 20          	add    $0x20,%rsp
  403955:	c9                   	leaveq 
  403956:	c3                   	retq   

0000000000403957 <lprofWriteDataImpl>:
  403957:	55                   	push   %rbp
  403958:	48 89 e5             	mov    %rsp,%rbp
  40395b:	48 81 ec 30 01 00 00 	sub    $0x130,%rsp
  403962:	48 89 bd 08 ff ff ff 	mov    %rdi,-0xf8(%rbp)
  403969:	48 89 b5 00 ff ff ff 	mov    %rsi,-0x100(%rbp)
  403970:	48 89 95 f8 fe ff ff 	mov    %rdx,-0x108(%rbp)
  403977:	48 89 8d f0 fe ff ff 	mov    %rcx,-0x110(%rbp)
  40397e:	4c 89 85 e8 fe ff ff 	mov    %r8,-0x118(%rbp)
  403985:	4c 89 8d e0 fe ff ff 	mov    %r9,-0x120(%rbp)
  40398c:	48 8b 45 10          	mov    0x10(%rbp),%rax
  403990:	48 89 85 d8 fe ff ff 	mov    %rax,-0x128(%rbp)
  403997:	48 8b 45 18          	mov    0x18(%rbp),%rax
  40399b:	48 89 85 d0 fe ff ff 	mov    %rax,-0x130(%rbp)
  4039a2:	64 48 8b 04 25 28 00 	mov    %fs:0x28,%rax
  4039a9:	00 00 
  4039ab:	48 89 45 f8          	mov    %rax,-0x8(%rbp)
  4039af:	31 c0                	xor    %eax,%eax
  4039b1:	48 8b 95 f8 fe ff ff 	mov    -0x108(%rbp),%rdx
  4039b8:	48 8b 85 00 ff ff ff 	mov    -0x100(%rbp),%rax
  4039bf:	48 89 d6             	mov    %rdx,%rsi
  4039c2:	48 89 c7             	mov    %rax,%rdi
  4039c5:	e8 36 17 00 00       	callq  405100 <__llvm_profile_get_data_size>
  4039ca:	48 89 85 10 ff ff ff 	mov    %rax,-0xf0(%rbp)
  4039d1:	48 8b 95 e8 fe ff ff 	mov    -0x118(%rbp),%rdx
  4039d8:	48 8b 85 f0 fe ff ff 	mov    -0x110(%rbp),%rax
  4039df:	48 29 c2             	sub    %rax,%rdx
  4039e2:	48 89 d0             	mov    %rdx,%rax
  4039e5:	48 c1 f8 03          	sar    $0x3,%rax
  4039e9:	48 89 85 18 ff ff ff 	mov    %rax,-0xe8(%rbp)
  4039f0:	48 8b 95 d0 fe ff ff 	mov    -0x130(%rbp),%rdx
  4039f7:	48 8b 85 d8 fe ff ff 	mov    -0x128(%rbp),%rax
  4039fe:	48 29 c2             	sub    %rax,%rdx
  403a01:	48 89 d0             	mov    %rdx,%rax
  403a04:	48 89 85 20 ff ff ff 	mov    %rax,-0xe0(%rbp)
  403a0b:	48 8b 85 20 ff ff ff 	mov    -0xe0(%rbp),%rax
  403a12:	48 89 c7             	mov    %rax,%rdi
  403a15:	e8 ab 07 00 00       	callq  4041c5 <__llvm_profile_get_num_padding_bytes>
  403a1a:	0f b6 c0             	movzbl %al,%eax
  403a1d:	48 89 85 28 ff ff ff 	mov    %rax,-0xd8(%rbp)
  403a24:	48 c7 45 f0 00 00 00 	movq   $0x0,-0x10(%rbp)
  403a2b:	00 
  403a2c:	48 83 bd 10 ff ff ff 	cmpq   $0x0,-0xf0(%rbp)
  403a33:	00 
  403a34:	75 0a                	jne    403a40 <lprofWriteDataImpl+0xe9>
  403a36:	b8 00 00 00 00       	mov    $0x0,%eax
  403a3b:	e9 5d 01 00 00       	jmpq   403b9d <lprofWriteDataImpl+0x246>
  403a40:	e8 53 07 00 00       	callq  404198 <__llvm_profile_get_magic>
  403a45:	48 89 85 30 ff ff ff 	mov    %rax,-0xd0(%rbp)
  403a4c:	e8 87 07 00 00       	callq  4041d8 <__llvm_profile_get_version>
  403a51:	48 89 85 38 ff ff ff 	mov    %rax,-0xc8(%rbp)
  403a58:	48 8b 85 10 ff ff ff 	mov    -0xf0(%rbp),%rax
  403a5f:	48 89 85 40 ff ff ff 	mov    %rax,-0xc0(%rbp)
  403a66:	48 8b 85 18 ff ff ff 	mov    -0xe8(%rbp),%rax
  403a6d:	48 89 85 48 ff ff ff 	mov    %rax,-0xb8(%rbp)
  403a74:	48 8b 85 20 ff ff ff 	mov    -0xe0(%rbp),%rax
  403a7b:	48 89 85 50 ff ff ff 	mov    %rax,-0xb0(%rbp)
  403a82:	48 8b 85 f0 fe ff ff 	mov    -0x110(%rbp),%rax
  403a89:	48 89 85 58 ff ff ff 	mov    %rax,-0xa8(%rbp)
  403a90:	48 8b 85 d8 fe ff ff 	mov    -0x128(%rbp),%rax
  403a97:	48 89 85 60 ff ff ff 	mov    %rax,-0xa0(%rbp)
  403a9e:	48 c7 85 68 ff ff ff 	movq   $0x1,-0x98(%rbp)
  403aa5:	01 00 00 00 
  403aa9:	48 8d 85 30 ff ff ff 	lea    -0xd0(%rbp),%rax
  403ab0:	48 89 85 70 ff ff ff 	mov    %rax,-0x90(%rbp)
  403ab7:	48 c7 85 78 ff ff ff 	movq   $0x40,-0x88(%rbp)
  403abe:	40 00 00 00 
  403ac2:	48 c7 45 80 01 00 00 	movq   $0x1,-0x80(%rbp)
  403ac9:	00 
  403aca:	48 8b 85 00 ff ff ff 	mov    -0x100(%rbp),%rax
  403ad1:	48 89 45 88          	mov    %rax,-0x78(%rbp)
  403ad5:	48 c7 45 90 30 00 00 	movq   $0x30,-0x70(%rbp)
  403adc:	00 
  403add:	48 8b 85 10 ff ff ff 	mov    -0xf0(%rbp),%rax
  403ae4:	48 89 45 98          	mov    %rax,-0x68(%rbp)
  403ae8:	48 8b 85 f0 fe ff ff 	mov    -0x110(%rbp),%rax
  403aef:	48 89 45 a0          	mov    %rax,-0x60(%rbp)
  403af3:	48 c7 45 a8 08 00 00 	movq   $0x8,-0x58(%rbp)
  403afa:	00 
  403afb:	48 8b 85 18 ff ff ff 	mov    -0xe8(%rbp),%rax
  403b02:	48 89 45 b0          	mov    %rax,-0x50(%rbp)
  403b06:	83 7d 20 00          	cmpl   $0x0,0x20(%rbp)
  403b0a:	75 09                	jne    403b15 <lprofWriteDataImpl+0x1be>
  403b0c:	48 8b 85 d8 fe ff ff 	mov    -0x128(%rbp),%rax
  403b13:	eb 05                	jmp    403b1a <lprofWriteDataImpl+0x1c3>
  403b15:	b8 00 00 00 00       	mov    $0x0,%eax
  403b1a:	48 89 45 b8          	mov    %rax,-0x48(%rbp)
  403b1e:	48 c7 45 c0 01 00 00 	movq   $0x1,-0x40(%rbp)
  403b25:	00 
  403b26:	48 8b 85 20 ff ff ff 	mov    -0xe0(%rbp),%rax
  403b2d:	48 89 45 c8          	mov    %rax,-0x38(%rbp)
  403b31:	48 8d 45 f0          	lea    -0x10(%rbp),%rax
  403b35:	48 89 45 d0          	mov    %rax,-0x30(%rbp)
  403b39:	48 c7 45 d8 01 00 00 	movq   $0x1,-0x28(%rbp)
  403b40:	00 
  403b41:	48 8b 85 28 ff ff ff 	mov    -0xd8(%rbp),%rax
  403b48:	48 89 45 e0          	mov    %rax,-0x20(%rbp)
  403b4c:	48 8b 85 08 ff ff ff 	mov    -0xf8(%rbp),%rax
  403b53:	48 8b 00             	mov    (%rax),%rax
  403b56:	48 8d b5 70 ff ff ff 	lea    -0x90(%rbp),%rsi
  403b5d:	48 8b 8d 08 ff ff ff 	mov    -0xf8(%rbp),%rcx
  403b64:	ba 05 00 00 00       	mov    $0x5,%edx
  403b69:	48 89 cf             	mov    %rcx,%rdi
  403b6c:	ff d0                	callq  *%rax
  403b6e:	85 c0                	test   %eax,%eax
  403b70:	74 07                	je     403b79 <lprofWriteDataImpl+0x222>
  403b72:	b8 ff ff ff ff       	mov    $0xffffffff,%eax
  403b77:	eb 24                	jmp    403b9d <lprofWriteDataImpl+0x246>
  403b79:	48 8b 8d f8 fe ff ff 	mov    -0x108(%rbp),%rcx
  403b80:	48 8b 95 00 ff ff ff 	mov    -0x100(%rbp),%rdx
  403b87:	48 8b b5 e0 fe ff ff 	mov    -0x120(%rbp),%rsi
  403b8e:	48 8b 85 08 ff ff ff 	mov    -0xf8(%rbp),%rax
  403b95:	48 89 c7             	mov    %rax,%rdi
  403b98:	e8 9a fc ff ff       	callq  403837 <writeValueProfData>
  403b9d:	48 8b 7d f8          	mov    -0x8(%rbp),%rdi
  403ba1:	64 48 33 3c 25 28 00 	xor    %fs:0x28,%rdi
  403ba8:	00 00 
  403baa:	74 05                	je     403bb1 <lprofWriteDataImpl+0x25a>
  403bac:	e8 df d2 ff ff       	callq  400e90 <__stack_chk_fail@plt>
  403bb1:	c9                   	leaveq 
  403bb2:	c3                   	retq   

0000000000403bb3 <__llvm_profile_begin_data>:
  403bb3:	55                   	push   %rbp
  403bb4:	48 89 e5             	mov    %rsp,%rbp
  403bb7:	48 8d 05 82 46 20 00 	lea    0x204682(%rip),%rax        # 608240 <__prof_cnts_sect_data>
  403bbe:	5d                   	pop    %rbp
  403bbf:	c3                   	retq   

0000000000403bc0 <__llvm_profile_end_data>:
  403bc0:	55                   	push   %rbp
  403bc1:	48 89 e5             	mov    %rsp,%rbp
  403bc4:	48 8d 05 35 47 20 00 	lea    0x204735(%rip),%rax        # 608300 <__prof_data_sect_data>
  403bcb:	5d                   	pop    %rbp
  403bcc:	c3                   	retq   

0000000000403bcd <__llvm_profile_begin_names>:
  403bcd:	55                   	push   %rbp
  403bce:	48 89 e5             	mov    %rsp,%rbp
  403bd1:	48 8d 05 28 47 20 00 	lea    0x204728(%rip),%rax        # 608300 <__prof_data_sect_data>
  403bd8:	5d                   	pop    %rbp
  403bd9:	c3                   	retq   

0000000000403bda <__llvm_profile_end_names>:
  403bda:	55                   	push   %rbp
  403bdb:	48 89 e5             	mov    %rsp,%rbp
  403bde:	48 8d 05 33 47 20 00 	lea    0x204733(%rip),%rax        # 608318 <__prof_nms_sect_data>
  403be5:	5d                   	pop    %rbp
  403be6:	c3                   	retq   

0000000000403be7 <__llvm_profile_begin_counters>:
  403be7:	55                   	push   %rbp
  403be8:	48 89 e5             	mov    %rsp,%rbp
  403beb:	48 8d 05 1e 46 20 00 	lea    0x20461e(%rip),%rax        # 608210 <__TMC_END__>
  403bf2:	5d                   	pop    %rbp
  403bf3:	c3                   	retq   

0000000000403bf4 <__llvm_profile_end_counters>:
  403bf4:	55                   	push   %rbp
  403bf5:	48 89 e5             	mov    %rsp,%rbp
  403bf8:	48 8d 05 41 46 20 00 	lea    0x204641(%rip),%rax        # 608240 <__prof_cnts_sect_data>
  403bff:	5d                   	pop    %rbp
  403c00:	c3                   	retq   

0000000000403c01 <__llvm_profile_begin_orderfile>:
  403c01:	55                   	push   %rbp
  403c02:	48 89 e5             	mov    %rsp,%rbp
  403c05:	48 8d 05 0c 47 20 00 	lea    0x20470c(%rip),%rax        # 608318 <__prof_nms_sect_data>
  403c0c:	5d                   	pop    %rbp
  403c0d:	c3                   	retq   

0000000000403c0e <__llvm_profile_begin_vnodes>:
  403c0e:	55                   	push   %rbp
  403c0f:	48 89 e5             	mov    %rsp,%rbp
  403c12:	48 8d 05 07 47 20 00 	lea    0x204707(%rip),%rax        # 608320 <lprofValueProfNodes>
  403c19:	5d                   	pop    %rbp
  403c1a:	c3                   	retq   

0000000000403c1b <__llvm_profile_end_vnodes>:
  403c1b:	55                   	push   %rbp
  403c1c:	48 89 e5             	mov    %rsp,%rbp
  403c1f:	48 8d 05 fa a6 20 00 	lea    0x20a6fa(%rip),%rax        # 60e320 <__stop___llvm_prf_vnds>
  403c26:	5d                   	pop    %rbp
  403c27:	c3                   	retq   

0000000000403c28 <__llvm_profile_recursive_mkdir>:
  403c28:	55                   	push   %rbp
  403c29:	48 89 e5             	mov    %rsp,%rbp
  403c2c:	48 83 ec 20          	sub    $0x20,%rsp
  403c30:	48 89 7d e8          	mov    %rdi,-0x18(%rbp)
  403c34:	c7 45 fc 01 00 00 00 	movl   $0x1,-0x4(%rbp)
  403c3b:	eb 66                	jmp    403ca3 <__llvm_profile_recursive_mkdir+0x7b>
  403c3d:	8b 45 fc             	mov    -0x4(%rbp),%eax
  403c40:	48 63 d0             	movslq %eax,%rdx
  403c43:	48 8b 45 e8          	mov    -0x18(%rbp),%rax
  403c47:	48 01 d0             	add    %rdx,%rax
  403c4a:	0f b6 00             	movzbl (%rax),%eax
  403c4d:	88 45 fb             	mov    %al,-0x5(%rbp)
  403c50:	8b 45 fc             	mov    -0x4(%rbp),%eax
  403c53:	48 63 d0             	movslq %eax,%rdx
  403c56:	48 8b 45 e8          	mov    -0x18(%rbp),%rax
  403c5a:	48 01 d0             	add    %rdx,%rax
  403c5d:	0f b6 00             	movzbl (%rax),%eax
  403c60:	3c 2f                	cmp    $0x2f,%al
  403c62:	75 3a                	jne    403c9e <__llvm_profile_recursive_mkdir+0x76>
  403c64:	8b 45 fc             	mov    -0x4(%rbp),%eax
  403c67:	48 63 d0             	movslq %eax,%rdx
  403c6a:	48 8b 45 e8          	mov    -0x18(%rbp),%rax
  403c6e:	48 01 d0             	add    %rdx,%rax
  403c71:	c6 00 00             	movb   $0x0,(%rax)
  403c74:	e8 57 00 00 00       	callq  403cd0 <__llvm_profile_get_dir_mode>
  403c79:	89 c2                	mov    %eax,%edx
  403c7b:	48 8b 45 e8          	mov    -0x18(%rbp),%rax
  403c7f:	89 d6                	mov    %edx,%esi
  403c81:	48 89 c7             	mov    %rax,%rdi
  403c84:	e8 27 d1 ff ff       	callq  400db0 <mkdir@plt>
  403c89:	8b 45 fc             	mov    -0x4(%rbp),%eax
  403c8c:	48 63 d0             	movslq %eax,%rdx
  403c8f:	48 8b 45 e8          	mov    -0x18(%rbp),%rax
  403c93:	48 01 c2             	add    %rax,%rdx
  403c96:	0f b6 45 fb          	movzbl -0x5(%rbp),%eax
  403c9a:	88 02                	mov    %al,(%rdx)
  403c9c:	eb 01                	jmp    403c9f <__llvm_profile_recursive_mkdir+0x77>
  403c9e:	90                   	nop
  403c9f:	83 45 fc 01          	addl   $0x1,-0x4(%rbp)
  403ca3:	8b 45 fc             	mov    -0x4(%rbp),%eax
  403ca6:	48 63 d0             	movslq %eax,%rdx
  403ca9:	48 8b 45 e8          	mov    -0x18(%rbp),%rax
  403cad:	48 01 d0             	add    %rdx,%rax
  403cb0:	0f b6 00             	movzbl (%rax),%eax
  403cb3:	84 c0                	test   %al,%al
  403cb5:	75 86                	jne    403c3d <__llvm_profile_recursive_mkdir+0x15>
  403cb7:	90                   	nop
  403cb8:	c9                   	leaveq 
  403cb9:	c3                   	retq   

0000000000403cba <__llvm_profile_set_dir_mode>:
  403cba:	55                   	push   %rbp
  403cbb:	48 89 e5             	mov    %rsp,%rbp
  403cbe:	89 7d fc             	mov    %edi,-0x4(%rbp)
  403cc1:	48 c7 c0 78 81 60 00 	mov    $0x608178,%rax
  403cc8:	8b 55 fc             	mov    -0x4(%rbp),%edx
  403ccb:	89 10                	mov    %edx,(%rax)
  403ccd:	90                   	nop
  403cce:	5d                   	pop    %rbp
  403ccf:	c3                   	retq   

0000000000403cd0 <__llvm_profile_get_dir_mode>:
  403cd0:	55                   	push   %rbp
  403cd1:	48 89 e5             	mov    %rsp,%rbp
  403cd4:	48 c7 c0 78 81 60 00 	mov    $0x608178,%rax
  403cdb:	8b 00                	mov    (%rax),%eax
  403cdd:	5d                   	pop    %rbp
  403cde:	c3                   	retq   

0000000000403cdf <lprofGetHostName>:
  403cdf:	55                   	push   %rbp
  403ce0:	48 89 e5             	mov    %rsp,%rbp
  403ce3:	48 81 ec b0 01 00 00 	sub    $0x1b0,%rsp
  403cea:	48 89 bd 58 fe ff ff 	mov    %rdi,-0x1a8(%rbp)
  403cf1:	89 b5 54 fe ff ff    	mov    %esi,-0x1ac(%rbp)
  403cf7:	64 48 8b 04 25 28 00 	mov    %fs:0x28,%rax
  403cfe:	00 00 
  403d00:	48 89 45 f8          	mov    %rax,-0x8(%rbp)
  403d04:	31 c0                	xor    %eax,%eax
  403d06:	48 8d 85 70 fe ff ff 	lea    -0x190(%rbp),%rax
  403d0d:	48 89 c7             	mov    %rax,%rdi
  403d10:	e8 5b d0 ff ff       	callq  400d70 <uname@plt>
  403d15:	89 85 6c fe ff ff    	mov    %eax,-0x194(%rbp)
  403d1b:	83 bd 6c fe ff ff 00 	cmpl   $0x0,-0x194(%rbp)
  403d22:	78 2d                	js     403d51 <lprofGetHostName+0x72>
  403d24:	8b 85 54 fe ff ff    	mov    -0x1ac(%rbp),%eax
  403d2a:	48 63 d0             	movslq %eax,%rdx
  403d2d:	48 8d 85 70 fe ff ff 	lea    -0x190(%rbp),%rax
  403d34:	48 8d 48 41          	lea    0x41(%rax),%rcx
  403d38:	48 8b 85 58 fe ff ff 	mov    -0x1a8(%rbp),%rax
  403d3f:	48 89 ce             	mov    %rcx,%rsi
  403d42:	48 89 c7             	mov    %rax,%rdi
  403d45:	e8 76 d0 ff ff       	callq  400dc0 <strncpy@plt>
  403d4a:	b8 00 00 00 00       	mov    $0x0,%eax
  403d4f:	eb 06                	jmp    403d57 <lprofGetHostName+0x78>
  403d51:	8b 85 6c fe ff ff    	mov    -0x194(%rbp),%eax
  403d57:	48 8b 4d f8          	mov    -0x8(%rbp),%rcx
  403d5b:	64 48 33 0c 25 28 00 	xor    %fs:0x28,%rcx
  403d62:	00 00 
  403d64:	74 05                	je     403d6b <lprofGetHostName+0x8c>
  403d66:	e8 25 d1 ff ff       	callq  400e90 <__stack_chk_fail@plt>
  403d6b:	c9                   	leaveq 
  403d6c:	c3                   	retq   

0000000000403d6d <lprofLockFd>:
  403d6d:	55                   	push   %rbp
  403d6e:	48 89 e5             	mov    %rsp,%rbp
  403d71:	48 83 ec 40          	sub    $0x40,%rsp
  403d75:	89 7d cc             	mov    %edi,-0x34(%rbp)
  403d78:	64 48 8b 04 25 28 00 	mov    %fs:0x28,%rax
  403d7f:	00 00 
  403d81:	48 89 45 f8          	mov    %rax,-0x8(%rbp)
  403d85:	31 c0                	xor    %eax,%eax
  403d87:	66 c7 45 d2 00 00    	movw   $0x0,-0x2e(%rbp)
  403d8d:	48 c7 45 d8 00 00 00 	movq   $0x0,-0x28(%rbp)
  403d94:	00 
  403d95:	48 c7 45 e0 00 00 00 	movq   $0x0,-0x20(%rbp)
  403d9c:	00 
  403d9d:	e8 6e d1 ff ff       	callq  400f10 <getpid@plt>
  403da2:	89 45 e8             	mov    %eax,-0x18(%rbp)
  403da5:	66 c7 45 d0 01 00    	movw   $0x1,-0x30(%rbp)
  403dab:	eb 1f                	jmp    403dcc <lprofLockFd+0x5f>
  403dad:	e8 ae cf ff ff       	callq  400d60 <__errno_location@plt>
  403db2:	8b 00                	mov    (%rax),%eax
  403db4:	83 f8 04             	cmp    $0x4,%eax
  403db7:	74 13                	je     403dcc <lprofLockFd+0x5f>
  403db9:	e8 a2 cf ff ff       	callq  400d60 <__errno_location@plt>
  403dbe:	8b 00                	mov    (%rax),%eax
  403dc0:	83 f8 25             	cmp    $0x25,%eax
  403dc3:	75 26                	jne    403deb <lprofLockFd+0x7e>
  403dc5:	b8 ff ff ff ff       	mov    $0xffffffff,%eax
  403dca:	eb 25                	jmp    403df1 <lprofLockFd+0x84>
  403dcc:	48 8d 55 d0          	lea    -0x30(%rbp),%rdx
  403dd0:	8b 45 cc             	mov    -0x34(%rbp),%eax
  403dd3:	be 07 00 00 00       	mov    $0x7,%esi
  403dd8:	89 c7                	mov    %eax,%edi
  403dda:	b8 00 00 00 00       	mov    $0x0,%eax
  403ddf:	e8 0c d0 ff ff       	callq  400df0 <fcntl@plt>
  403de4:	83 f8 ff             	cmp    $0xffffffff,%eax
  403de7:	74 c4                	je     403dad <lprofLockFd+0x40>
  403de9:	eb 01                	jmp    403dec <lprofLockFd+0x7f>
  403deb:	90                   	nop
  403dec:	b8 00 00 00 00       	mov    $0x0,%eax
  403df1:	48 8b 4d f8          	mov    -0x8(%rbp),%rcx
  403df5:	64 48 33 0c 25 28 00 	xor    %fs:0x28,%rcx
  403dfc:	00 00 
  403dfe:	74 05                	je     403e05 <lprofLockFd+0x98>
  403e00:	e8 8b d0 ff ff       	callq  400e90 <__stack_chk_fail@plt>
  403e05:	c9                   	leaveq 
  403e06:	c3                   	retq   

0000000000403e07 <lprofUnlockFd>:
  403e07:	55                   	push   %rbp
  403e08:	48 89 e5             	mov    %rsp,%rbp
  403e0b:	48 83 ec 40          	sub    $0x40,%rsp
  403e0f:	89 7d cc             	mov    %edi,-0x34(%rbp)
  403e12:	64 48 8b 04 25 28 00 	mov    %fs:0x28,%rax
  403e19:	00 00 
  403e1b:	48 89 45 f8          	mov    %rax,-0x8(%rbp)
  403e1f:	31 c0                	xor    %eax,%eax
  403e21:	66 c7 45 d2 00 00    	movw   $0x0,-0x2e(%rbp)
  403e27:	48 c7 45 d8 00 00 00 	movq   $0x0,-0x28(%rbp)
  403e2e:	00 
  403e2f:	48 c7 45 e0 00 00 00 	movq   $0x0,-0x20(%rbp)
  403e36:	00 
  403e37:	e8 d4 d0 ff ff       	callq  400f10 <getpid@plt>
  403e3c:	89 45 e8             	mov    %eax,-0x18(%rbp)
  403e3f:	66 c7 45 d0 02 00    	movw   $0x2,-0x30(%rbp)
  403e45:	eb 1f                	jmp    403e66 <lprofUnlockFd+0x5f>
  403e47:	e8 14 cf ff ff       	callq  400d60 <__errno_location@plt>
  403e4c:	8b 00                	mov    (%rax),%eax
  403e4e:	83 f8 04             	cmp    $0x4,%eax
  403e51:	74 13                	je     403e66 <lprofUnlockFd+0x5f>
  403e53:	e8 08 cf ff ff       	callq  400d60 <__errno_location@plt>
  403e58:	8b 00                	mov    (%rax),%eax
  403e5a:	83 f8 25             	cmp    $0x25,%eax
  403e5d:	75 26                	jne    403e85 <lprofUnlockFd+0x7e>
  403e5f:	b8 ff ff ff ff       	mov    $0xffffffff,%eax
  403e64:	eb 25                	jmp    403e8b <lprofUnlockFd+0x84>
  403e66:	48 8d 55 d0          	lea    -0x30(%rbp),%rdx
  403e6a:	8b 45 cc             	mov    -0x34(%rbp),%eax
  403e6d:	be 07 00 00 00       	mov    $0x7,%esi
  403e72:	89 c7                	mov    %eax,%edi
  403e74:	b8 00 00 00 00       	mov    $0x0,%eax
  403e79:	e8 72 cf ff ff       	callq  400df0 <fcntl@plt>
  403e7e:	83 f8 ff             	cmp    $0xffffffff,%eax
  403e81:	74 c4                	je     403e47 <lprofUnlockFd+0x40>
  403e83:	eb 01                	jmp    403e86 <lprofUnlockFd+0x7f>
  403e85:	90                   	nop
  403e86:	b8 00 00 00 00       	mov    $0x0,%eax
  403e8b:	48 8b 4d f8          	mov    -0x8(%rbp),%rcx
  403e8f:	64 48 33 0c 25 28 00 	xor    %fs:0x28,%rcx
  403e96:	00 00 
  403e98:	74 05                	je     403e9f <lprofUnlockFd+0x98>
  403e9a:	e8 f1 cf ff ff       	callq  400e90 <__stack_chk_fail@plt>
  403e9f:	c9                   	leaveq 
  403ea0:	c3                   	retq   

0000000000403ea1 <lprofOpenFileEx>:
  403ea1:	55                   	push   %rbp
  403ea2:	48 89 e5             	mov    %rsp,%rbp
  403ea5:	48 83 ec 20          	sub    $0x20,%rsp
  403ea9:	48 89 7d e8          	mov    %rdi,-0x18(%rbp)
  403ead:	48 8b 45 e8          	mov    -0x18(%rbp),%rax
  403eb1:	ba b6 01 00 00       	mov    $0x1b6,%edx
  403eb6:	be 42 00 00 00       	mov    $0x42,%esi
  403ebb:	48 89 c7             	mov    %rax,%rdi
  403ebe:	b8 00 00 00 00       	mov    $0x0,%eax
  403ec3:	e8 48 cf ff ff       	callq  400e10 <open@plt>
  403ec8:	89 45 f4             	mov    %eax,-0xc(%rbp)
  403ecb:	83 7d f4 00          	cmpl   $0x0,-0xc(%rbp)
  403ecf:	79 07                	jns    403ed8 <lprofOpenFileEx+0x37>
  403ed1:	b8 00 00 00 00       	mov    $0x0,%eax
  403ed6:	eb 4c                	jmp    403f24 <lprofOpenFileEx+0x83>
  403ed8:	8b 45 f4             	mov    -0xc(%rbp),%eax
  403edb:	89 c7                	mov    %eax,%edi
  403edd:	e8 8b fe ff ff       	callq  403d6d <lprofLockFd>
  403ee2:	85 c0                	test   %eax,%eax
  403ee4:	74 25                	je     403f0b <lprofOpenFileEx+0x6a>
  403ee6:	48 8b 05 fb 40 20 00 	mov    0x2040fb(%rip),%rax        # 607fe8 <stderr@GLIBC_2.2.5>
  403eed:	48 8b 00             	mov    (%rax),%rax
  403ef0:	48 8d 15 59 1b 00 00 	lea    0x1b59(%rip),%rdx        # 405a50 <__llvm_profile_filename.7+0x690>
  403ef7:	48 8d 35 82 1b 00 00 	lea    0x1b82(%rip),%rsi        # 405a80 <__llvm_profile_filename.7+0x6c0>
  403efe:	48 89 c7             	mov    %rax,%rdi
  403f01:	b8 00 00 00 00       	mov    $0x0,%eax
  403f06:	e8 f5 cf ff ff       	callq  400f00 <fprintf@plt>
  403f0b:	8b 45 f4             	mov    -0xc(%rbp),%eax
  403f0e:	48 8d 35 b4 1b 00 00 	lea    0x1bb4(%rip),%rsi        # 405ac9 <__llvm_profile_filename.7+0x709>
  403f15:	89 c7                	mov    %eax,%edi
  403f17:	e8 44 cf ff ff       	callq  400e60 <fdopen@plt>
  403f1c:	48 89 45 f8          	mov    %rax,-0x8(%rbp)
  403f20:	48 8b 45 f8          	mov    -0x8(%rbp),%rax
  403f24:	c9                   	leaveq 
  403f25:	c3                   	retq   

0000000000403f26 <lprofGetPathPrefix>:
  403f26:	55                   	push   %rbp
  403f27:	48 89 e5             	mov    %rsp,%rbp
  403f2a:	48 83 ec 20          	sub    $0x20,%rsp
  403f2e:	48 89 7d e8          	mov    %rdi,-0x18(%rbp)
  403f32:	48 89 75 e0          	mov    %rsi,-0x20(%rbp)
  403f36:	48 8d 3d 90 1b 00 00 	lea    0x1b90(%rip),%rdi        # 405acd <__llvm_profile_filename.7+0x70d>
  403f3d:	e8 6e cf ff ff       	callq  400eb0 <getenv@plt>
  403f42:	48 89 45 f0          	mov    %rax,-0x10(%rbp)
  403f46:	48 8d 3d 8c 1b 00 00 	lea    0x1b8c(%rip),%rdi        # 405ad9 <__llvm_profile_filename.7+0x719>
  403f4d:	e8 5e cf ff ff       	callq  400eb0 <getenv@plt>
  403f52:	48 89 45 f8          	mov    %rax,-0x8(%rbp)
  403f56:	48 8b 45 e0          	mov    -0x20(%rbp),%rax
  403f5a:	48 c7 00 00 00 00 00 	movq   $0x0,(%rax)
  403f61:	48 8b 45 e8          	mov    -0x18(%rbp),%rax
  403f65:	c7 00 00 00 00 00    	movl   $0x0,(%rax)
  403f6b:	48 83 7d f0 00       	cmpq   $0x0,-0x10(%rbp)
  403f70:	74 0b                	je     403f7d <lprofGetPathPrefix+0x57>
  403f72:	48 8b 45 f0          	mov    -0x10(%rbp),%rax
  403f76:	0f b6 00             	movzbl (%rax),%eax
  403f79:	84 c0                	test   %al,%al
  403f7b:	75 07                	jne    403f84 <lprofGetPathPrefix+0x5e>
  403f7d:	b8 00 00 00 00       	mov    $0x0,%eax
  403f82:	eb 55                	jmp    403fd9 <lprofGetPathPrefix+0xb3>
  403f84:	48 83 7d f8 00       	cmpq   $0x0,-0x8(%rbp)
  403f89:	74 2a                	je     403fb5 <lprofGetPathPrefix+0x8f>
  403f8b:	48 8b 45 f8          	mov    -0x8(%rbp),%rax
  403f8f:	48 89 c7             	mov    %rax,%rdi
  403f92:	e8 89 cf ff ff       	callq  400f20 <atoi@plt>
  403f97:	89 c2                	mov    %eax,%edx
  403f99:	48 8b 45 e8          	mov    -0x18(%rbp),%rax
  403f9d:	89 10                	mov    %edx,(%rax)
  403f9f:	48 8b 45 e8          	mov    -0x18(%rbp),%rax
  403fa3:	8b 00                	mov    (%rax),%eax
  403fa5:	85 c0                	test   %eax,%eax
  403fa7:	79 16                	jns    403fbf <lprofGetPathPrefix+0x99>
  403fa9:	48 8b 45 e8          	mov    -0x18(%rbp),%rax
  403fad:	c7 00 00 00 00 00    	movl   $0x0,(%rax)
  403fb3:	eb 0a                	jmp    403fbf <lprofGetPathPrefix+0x99>
  403fb5:	48 8b 45 e8          	mov    -0x18(%rbp),%rax
  403fb9:	c7 00 00 00 00 00    	movl   $0x0,(%rax)
  403fbf:	48 8b 45 f0          	mov    -0x10(%rbp),%rax
  403fc3:	48 89 c7             	mov    %rax,%rdi
  403fc6:	e8 d5 cd ff ff       	callq  400da0 <strlen@plt>
  403fcb:	48 89 c2             	mov    %rax,%rdx
  403fce:	48 8b 45 e0          	mov    -0x20(%rbp),%rax
  403fd2:	48 89 10             	mov    %rdx,(%rax)
  403fd5:	48 8b 45 f0          	mov    -0x10(%rbp),%rax
  403fd9:	c9                   	leaveq 
  403fda:	c3                   	retq   

0000000000403fdb <lprofApplyPathPrefix>:
  403fdb:	55                   	push   %rbp
  403fdc:	48 89 e5             	mov    %rsp,%rbp
  403fdf:	48 83 ec 50          	sub    $0x50,%rsp
  403fe3:	48 89 7d d8          	mov    %rdi,-0x28(%rbp)
  403fe7:	48 89 75 d0          	mov    %rsi,-0x30(%rbp)
  403feb:	48 89 55 c8          	mov    %rdx,-0x38(%rbp)
  403fef:	48 89 4d c0          	mov    %rcx,-0x40(%rbp)
  403ff3:	44 89 45 bc          	mov    %r8d,-0x44(%rbp)
  403ff7:	48 8b 45 d0          	mov    -0x30(%rbp),%rax
  403ffb:	48 89 45 f8          	mov    %rax,-0x8(%rbp)
  403fff:	c7 45 ec 00 00 00 00 	movl   $0x0,-0x14(%rbp)
  404006:	48 8b 45 d0          	mov    -0x30(%rbp),%rax
  40400a:	48 83 c0 01          	add    $0x1,%rax
  40400e:	48 89 45 f0          	mov    %rax,-0x10(%rbp)
  404012:	eb 2a                	jmp    40403e <lprofApplyPathPrefix+0x63>
  404014:	48 8b 45 f0          	mov    -0x10(%rbp),%rax
  404018:	0f b6 00             	movzbl (%rax),%eax
  40401b:	84 c0                	test   %al,%al
  40401d:	74 29                	je     404048 <lprofApplyPathPrefix+0x6d>
  40401f:	48 8b 45 f0          	mov    -0x10(%rbp),%rax
  404023:	0f b6 00             	movzbl (%rax),%eax
  404026:	3c 2f                	cmp    $0x2f,%al
  404028:	75 0e                	jne    404038 <lprofApplyPathPrefix+0x5d>
  40402a:	48 8b 45 f0          	mov    -0x10(%rbp),%rax
  40402e:	48 89 45 f8          	mov    %rax,-0x8(%rbp)
  404032:	83 45 ec 01          	addl   $0x1,-0x14(%rbp)
  404036:	eb 01                	jmp    404039 <lprofApplyPathPrefix+0x5e>
  404038:	90                   	nop
  404039:	48 83 45 f0 01       	addq   $0x1,-0x10(%rbp)
  40403e:	8b 45 ec             	mov    -0x14(%rbp),%eax
  404041:	3b 45 bc             	cmp    -0x44(%rbp),%eax
  404044:	7c ce                	jl     404014 <lprofApplyPathPrefix+0x39>
  404046:	eb 01                	jmp    404049 <lprofApplyPathPrefix+0x6e>
  404048:	90                   	nop
  404049:	48 8b 55 c0          	mov    -0x40(%rbp),%rdx
  40404d:	48 8b 4d c8          	mov    -0x38(%rbp),%rcx
  404051:	48 8b 45 d8          	mov    -0x28(%rbp),%rax
  404055:	48 89 ce             	mov    %rcx,%rsi
  404058:	48 89 c7             	mov    %rax,%rdi
  40405b:	e8 c0 cd ff ff       	callq  400e20 <memcpy@plt>
  404060:	48 8b 45 c0          	mov    -0x40(%rbp),%rax
  404064:	48 8d 50 ff          	lea    -0x1(%rax),%rdx
  404068:	48 8b 45 c8          	mov    -0x38(%rbp),%rax
  40406c:	48 01 d0             	add    %rdx,%rax
  40406f:	0f b6 00             	movzbl (%rax),%eax
  404072:	3c 2f                	cmp    $0x2f,%al
  404074:	74 16                	je     40408c <lprofApplyPathPrefix+0xb1>
  404076:	48 8b 45 c0          	mov    -0x40(%rbp),%rax
  40407a:	48 8d 50 01          	lea    0x1(%rax),%rdx
  40407e:	48 89 55 c0          	mov    %rdx,-0x40(%rbp)
  404082:	48 8b 55 d8          	mov    -0x28(%rbp),%rdx
  404086:	48 01 d0             	add    %rdx,%rax
  404089:	c6 00 2f             	movb   $0x2f,(%rax)
  40408c:	48 8b 45 f8          	mov    -0x8(%rbp),%rax
  404090:	48 89 c7             	mov    %rax,%rdi
  404093:	e8 08 cd ff ff       	callq  400da0 <strlen@plt>
  404098:	48 8d 50 01          	lea    0x1(%rax),%rdx
  40409c:	48 8b 4d d8          	mov    -0x28(%rbp),%rcx
  4040a0:	48 8b 45 c0          	mov    -0x40(%rbp),%rax
  4040a4:	48 01 c1             	add    %rax,%rcx
  4040a7:	48 8b 45 f8          	mov    -0x8(%rbp),%rax
  4040ab:	48 89 c6             	mov    %rax,%rsi
  4040ae:	48 89 cf             	mov    %rcx,%rdi
  4040b1:	e8 6a cd ff ff       	callq  400e20 <memcpy@plt>
  4040b6:	90                   	nop
  4040b7:	c9                   	leaveq 
  4040b8:	c3                   	retq   

00000000004040b9 <lprofFindFirstDirSeparator>:
  4040b9:	55                   	push   %rbp
  4040ba:	48 89 e5             	mov    %rsp,%rbp
  4040bd:	48 83 ec 20          	sub    $0x20,%rsp
  4040c1:	48 89 7d e8          	mov    %rdi,-0x18(%rbp)
  4040c5:	48 8b 45 e8          	mov    -0x18(%rbp),%rax
  4040c9:	be 2f 00 00 00       	mov    $0x2f,%esi
  4040ce:	48 89 c7             	mov    %rax,%rdi
  4040d1:	e8 ba cc ff ff       	callq  400d90 <strchr@plt>
  4040d6:	48 89 45 f8          	mov    %rax,-0x8(%rbp)
  4040da:	48 8b 45 f8          	mov    -0x8(%rbp),%rax
  4040de:	c9                   	leaveq 
  4040df:	c3                   	retq   

00000000004040e0 <lprofFindLastDirSeparator>:
  4040e0:	55                   	push   %rbp
  4040e1:	48 89 e5             	mov    %rsp,%rbp
  4040e4:	48 83 ec 20          	sub    $0x20,%rsp
  4040e8:	48 89 7d e8          	mov    %rdi,-0x18(%rbp)
  4040ec:	48 8b 45 e8          	mov    -0x18(%rbp),%rax
  4040f0:	be 2f 00 00 00       	mov    $0x2f,%esi
  4040f5:	48 89 c7             	mov    %rax,%rdi
  4040f8:	e8 73 cd ff ff       	callq  400e70 <strrchr@plt>
  4040fd:	48 89 45 f8          	mov    %rax,-0x8(%rbp)
  404101:	48 8b 45 f8          	mov    -0x8(%rbp),%rax
  404105:	c9                   	leaveq 
  404106:	c3                   	retq   

0000000000404107 <lprofSuspendSigKill>:
  404107:	55                   	push   %rbp
  404108:	48 89 e5             	mov    %rsp,%rbp
  40410b:	48 83 ec 10          	sub    $0x10,%rsp
  40410f:	64 48 8b 04 25 28 00 	mov    %fs:0x28,%rax
  404116:	00 00 
  404118:	48 89 45 f8          	mov    %rax,-0x8(%rbp)
  40411c:	31 c0                	xor    %eax,%eax
  40411e:	c7 45 f4 00 00 00 00 	movl   $0x0,-0xc(%rbp)
  404125:	48 8d 45 f4          	lea    -0xc(%rbp),%rax
  404129:	48 89 c6             	mov    %rax,%rsi
  40412c:	bf 02 00 00 00       	mov    $0x2,%edi
  404131:	b8 00 00 00 00       	mov    $0x0,%eax
  404136:	e8 85 cd ff ff       	callq  400ec0 <prctl@plt>
  40413b:	85 c0                	test   %eax,%eax
  40413d:	75 1c                	jne    40415b <lprofSuspendSigKill+0x54>
  40413f:	8b 45 f4             	mov    -0xc(%rbp),%eax
  404142:	83 f8 09             	cmp    $0x9,%eax
  404145:	75 14                	jne    40415b <lprofSuspendSigKill+0x54>
  404147:	be 00 00 00 00       	mov    $0x0,%esi
  40414c:	bf 01 00 00 00       	mov    $0x1,%edi
  404151:	b8 00 00 00 00       	mov    $0x0,%eax
  404156:	e8 65 cd ff ff       	callq  400ec0 <prctl@plt>
  40415b:	8b 45 f4             	mov    -0xc(%rbp),%eax
  40415e:	83 f8 09             	cmp    $0x9,%eax
  404161:	0f 94 c0             	sete   %al
  404164:	0f b6 c0             	movzbl %al,%eax
  404167:	48 8b 55 f8          	mov    -0x8(%rbp),%rdx
  40416b:	64 48 33 14 25 28 00 	xor    %fs:0x28,%rdx
  404172:	00 00 
  404174:	74 05                	je     40417b <lprofSuspendSigKill+0x74>
  404176:	e8 15 cd ff ff       	callq  400e90 <__stack_chk_fail@plt>
  40417b:	c9                   	leaveq 
  40417c:	c3                   	retq   

000000000040417d <lprofRestoreSigKill>:
  40417d:	55                   	push   %rbp
  40417e:	48 89 e5             	mov    %rsp,%rbp
  404181:	be 09 00 00 00       	mov    $0x9,%esi
  404186:	bf 01 00 00 00       	mov    $0x1,%edi
  40418b:	b8 00 00 00 00       	mov    $0x0,%eax
  404190:	e8 2b cd ff ff       	callq  400ec0 <prctl@plt>
  404195:	90                   	nop
  404196:	5d                   	pop    %rbp
  404197:	c3                   	retq   

0000000000404198 <__llvm_profile_get_magic>:
  404198:	55                   	push   %rbp
  404199:	48 89 e5             	mov    %rsp,%rbp
  40419c:	48 b8 81 72 66 6f 72 	movabs $0xff6c70726f667281,%rax
  4041a3:	70 6c ff 
  4041a6:	5d                   	pop    %rbp
  4041a7:	c3                   	retq   

00000000004041a8 <lprofProfileDumped>:
  4041a8:	55                   	push   %rbp
  4041a9:	48 89 e5             	mov    %rsp,%rbp
  4041ac:	8b 05 ae c3 20 00    	mov    0x20c3ae(%rip),%eax        # 610560 <ProfileDumped>
  4041b2:	5d                   	pop    %rbp
  4041b3:	c3                   	retq   

00000000004041b4 <lprofSetProfileDumped>:
  4041b4:	55                   	push   %rbp
  4041b5:	48 89 e5             	mov    %rsp,%rbp
  4041b8:	c7 05 9e c3 20 00 01 	movl   $0x1,0x20c39e(%rip)        # 610560 <ProfileDumped>
  4041bf:	00 00 00 
  4041c2:	90                   	nop
  4041c3:	5d                   	pop    %rbp
  4041c4:	c3                   	retq   

00000000004041c5 <__llvm_profile_get_num_padding_bytes>:
  4041c5:	55                   	push   %rbp
  4041c6:	48 89 e5             	mov    %rsp,%rbp
  4041c9:	48 89 7d f8          	mov    %rdi,-0x8(%rbp)
  4041cd:	48 8b 45 f8          	mov    -0x8(%rbp),%rax
  4041d1:	f7 d8                	neg    %eax
  4041d3:	83 e0 07             	and    $0x7,%eax
  4041d6:	5d                   	pop    %rbp
  4041d7:	c3                   	retq   

00000000004041d8 <__llvm_profile_get_version>:
  4041d8:	55                   	push   %rbp
  4041d9:	48 89 e5             	mov    %rsp,%rbp
  4041dc:	48 c7 c0 98 53 40 00 	mov    $0x405398,%rax
  4041e3:	48 8b 00             	mov    (%rax),%rax
  4041e6:	5d                   	pop    %rbp
  4041e7:	c3                   	retq   

00000000004041e8 <__llvm_profile_reset_counters>:
  4041e8:	55                   	push   %rbp
  4041e9:	48 89 e5             	mov    %rsp,%rbp
  4041ec:	48 83 ec 50          	sub    $0x50,%rsp
  4041f0:	e8 f2 f9 ff ff       	callq  403be7 <__llvm_profile_begin_counters>
  4041f5:	48 89 45 d8          	mov    %rax,-0x28(%rbp)
  4041f9:	e8 f6 f9 ff ff       	callq  403bf4 <__llvm_profile_end_counters>
  4041fe:	48 89 45 e0          	mov    %rax,-0x20(%rbp)
  404202:	48 8b 55 e0          	mov    -0x20(%rbp),%rdx
  404206:	48 8b 45 d8          	mov    -0x28(%rbp),%rax
  40420a:	48 29 c2             	sub    %rax,%rdx
  40420d:	48 89 d0             	mov    %rdx,%rax
  404210:	48 89 c2             	mov    %rax,%rdx
  404213:	48 8b 45 d8          	mov    -0x28(%rbp),%rax
  404217:	be 00 00 00 00       	mov    $0x0,%esi
  40421c:	48 89 c7             	mov    %rax,%rdi
  40421f:	e8 ac cb ff ff       	callq  400dd0 <memset@plt>
  404224:	e8 8a f9 ff ff       	callq  403bb3 <__llvm_profile_begin_data>
  404229:	48 89 45 e8          	mov    %rax,-0x18(%rbp)
  40422d:	e8 8e f9 ff ff       	callq  403bc0 <__llvm_profile_end_data>
  404232:	48 89 45 f0          	mov    %rax,-0x10(%rbp)
  404236:	48 8b 45 e8          	mov    -0x18(%rbp),%rax
  40423a:	48 89 45 c0          	mov    %rax,-0x40(%rbp)
  40423e:	e9 a7 00 00 00       	jmpq   4042ea <__llvm_profile_reset_counters+0x102>
  404243:	48 c7 45 c8 00 00 00 	movq   $0x0,-0x38(%rbp)
  40424a:	00 
  40424b:	48 8b 45 c0          	mov    -0x40(%rbp),%rax
  40424f:	48 8b 40 20          	mov    0x20(%rax),%rax
  404253:	48 85 c0             	test   %rax,%rax
  404256:	0f 84 88 00 00 00    	je     4042e4 <__llvm_profile_reset_counters+0xfc>
  40425c:	48 8b 45 c0          	mov    -0x40(%rbp),%rax
  404260:	48 8b 40 20          	mov    0x20(%rax),%rax
  404264:	48 89 45 f8          	mov    %rax,-0x8(%rbp)
  404268:	c7 45 b8 00 00 00 00 	movl   $0x0,-0x48(%rbp)
  40426f:	eb 1b                	jmp    40428c <__llvm_profile_reset_counters+0xa4>
  404271:	48 8b 45 c0          	mov    -0x40(%rbp),%rax
  404275:	8b 55 b8             	mov    -0x48(%rbp),%edx
  404278:	48 83 c2 10          	add    $0x10,%rdx
  40427c:	0f b7 44 50 0c       	movzwl 0xc(%rax,%rdx,2),%eax
  404281:	0f b7 c0             	movzwl %ax,%eax
  404284:	48 01 45 c8          	add    %rax,-0x38(%rbp)
  404288:	83 45 b8 01          	addl   $0x1,-0x48(%rbp)
  40428c:	83 7d b8 01          	cmpl   $0x1,-0x48(%rbp)
  404290:	76 df                	jbe    404271 <__llvm_profile_reset_counters+0x89>
  404292:	c7 45 bc 00 00 00 00 	movl   $0x0,-0x44(%rbp)
  404299:	eb 3e                	jmp    4042d9 <__llvm_profile_reset_counters+0xf1>
  40429b:	8b 45 bc             	mov    -0x44(%rbp),%eax
  40429e:	48 8d 14 c5 00 00 00 	lea    0x0(,%rax,8),%rdx
  4042a5:	00 
  4042a6:	48 8b 45 f8          	mov    -0x8(%rbp),%rax
  4042aa:	48 01 d0             	add    %rdx,%rax
  4042ad:	48 8b 00             	mov    (%rax),%rax
  4042b0:	48 89 45 d0          	mov    %rax,-0x30(%rbp)
  4042b4:	eb 18                	jmp    4042ce <__llvm_profile_reset_counters+0xe6>
  4042b6:	48 8b 45 d0          	mov    -0x30(%rbp),%rax
  4042ba:	48 c7 40 08 00 00 00 	movq   $0x0,0x8(%rax)
  4042c1:	00 
  4042c2:	48 8b 45 d0          	mov    -0x30(%rbp),%rax
  4042c6:	48 8b 40 10          	mov    0x10(%rax),%rax
  4042ca:	48 89 45 d0          	mov    %rax,-0x30(%rbp)
  4042ce:	48 83 7d d0 00       	cmpq   $0x0,-0x30(%rbp)
  4042d3:	75 e1                	jne    4042b6 <__llvm_profile_reset_counters+0xce>
  4042d5:	83 45 bc 01          	addl   $0x1,-0x44(%rbp)
  4042d9:	8b 45 bc             	mov    -0x44(%rbp),%eax
  4042dc:	48 39 45 c8          	cmp    %rax,-0x38(%rbp)
  4042e0:	77 b9                	ja     40429b <__llvm_profile_reset_counters+0xb3>
  4042e2:	eb 01                	jmp    4042e5 <__llvm_profile_reset_counters+0xfd>
  4042e4:	90                   	nop
  4042e5:	48 83 45 c0 30       	addq   $0x30,-0x40(%rbp)
  4042ea:	48 8b 45 c0          	mov    -0x40(%rbp),%rax
  4042ee:	48 3b 45 f0          	cmp    -0x10(%rbp),%rax
  4042f2:	0f 82 4b ff ff ff    	jb     404243 <__llvm_profile_reset_counters+0x5b>
  4042f8:	c7 05 5e c2 20 00 00 	movl   $0x0,0x20c25e(%rip)        # 610560 <ProfileDumped>
  4042ff:	00 00 00 
  404302:	90                   	nop
  404303:	c9                   	leaveq 
  404304:	c3                   	retq   

0000000000404305 <getValueProfRecordHeaderSize>:
  404305:	55                   	push   %rbp
  404306:	48 89 e5             	mov    %rsp,%rbp
  404309:	89 7d ec             	mov    %edi,-0x14(%rbp)
  40430c:	8b 45 ec             	mov    -0x14(%rbp),%eax
  40430f:	83 c0 08             	add    $0x8,%eax
  404312:	89 45 fc             	mov    %eax,-0x4(%rbp)
  404315:	8b 45 fc             	mov    -0x4(%rbp),%eax
  404318:	83 c0 07             	add    $0x7,%eax
  40431b:	83 e0 f8             	and    $0xfffffff8,%eax
  40431e:	89 45 fc             	mov    %eax,-0x4(%rbp)
  404321:	8b 45 fc             	mov    -0x4(%rbp),%eax
  404324:	5d                   	pop    %rbp
  404325:	c3                   	retq   

0000000000404326 <getValueProfRecordSize>:
  404326:	55                   	push   %rbp
  404327:	48 89 e5             	mov    %rsp,%rbp
  40432a:	48 83 ec 08          	sub    $0x8,%rsp
  40432e:	89 7d fc             	mov    %edi,-0x4(%rbp)
  404331:	89 75 f8             	mov    %esi,-0x8(%rbp)
  404334:	8b 45 fc             	mov    -0x4(%rbp),%eax
  404337:	89 c7                	mov    %eax,%edi
  404339:	e8 c7 ff ff ff       	callq  404305 <getValueProfRecordHeaderSize>
  40433e:	89 c2                	mov    %eax,%edx
  404340:	8b 45 f8             	mov    -0x8(%rbp),%eax
  404343:	c1 e0 04             	shl    $0x4,%eax
  404346:	01 d0                	add    %edx,%eax
  404348:	c9                   	leaveq 
  404349:	c3                   	retq   

000000000040434a <getValueProfRecordValueData>:
  40434a:	55                   	push   %rbp
  40434b:	48 89 e5             	mov    %rsp,%rbp
  40434e:	48 83 ec 08          	sub    $0x8,%rsp
  404352:	48 89 7d f8          	mov    %rdi,-0x8(%rbp)
  404356:	48 8b 45 f8          	mov    -0x8(%rbp),%rax
  40435a:	8b 40 04             	mov    0x4(%rax),%eax
  40435d:	89 c7                	mov    %eax,%edi
  40435f:	e8 a1 ff ff ff       	callq  404305 <getValueProfRecordHeaderSize>
  404364:	89 c2                	mov    %eax,%edx
  404366:	48 8b 45 f8          	mov    -0x8(%rbp),%rax
  40436a:	48 01 d0             	add    %rdx,%rax
  40436d:	c9                   	leaveq 
  40436e:	c3                   	retq   

000000000040436f <getValueProfRecordNumValueData>:
  40436f:	55                   	push   %rbp
  404370:	48 89 e5             	mov    %rsp,%rbp
  404373:	48 89 7d e8          	mov    %rdi,-0x18(%rbp)
  404377:	c7 45 f8 00 00 00 00 	movl   $0x0,-0x8(%rbp)
  40437e:	c7 45 fc 00 00 00 00 	movl   $0x0,-0x4(%rbp)
  404385:	eb 16                	jmp    40439d <getValueProfRecordNumValueData+0x2e>
  404387:	48 8b 55 e8          	mov    -0x18(%rbp),%rdx
  40438b:	8b 45 fc             	mov    -0x4(%rbp),%eax
  40438e:	0f b6 44 02 08       	movzbl 0x8(%rdx,%rax,1),%eax
  404393:	0f b6 c0             	movzbl %al,%eax
  404396:	01 45 f8             	add    %eax,-0x8(%rbp)
  404399:	83 45 fc 01          	addl   $0x1,-0x4(%rbp)
  40439d:	48 8b 45 e8          	mov    -0x18(%rbp),%rax
  4043a1:	8b 40 04             	mov    0x4(%rax),%eax
  4043a4:	39 45 fc             	cmp    %eax,-0x4(%rbp)
  4043a7:	72 de                	jb     404387 <getValueProfRecordNumValueData+0x18>
  4043a9:	8b 45 f8             	mov    -0x8(%rbp),%eax
  4043ac:	5d                   	pop    %rbp
  4043ad:	c3                   	retq   

00000000004043ae <getValueProfRecordNext>:
  4043ae:	55                   	push   %rbp
  4043af:	48 89 e5             	mov    %rsp,%rbp
  4043b2:	48 83 ec 18          	sub    $0x18,%rsp
  4043b6:	48 89 7d e8          	mov    %rdi,-0x18(%rbp)
  4043ba:	48 8b 45 e8          	mov    -0x18(%rbp),%rax
  4043be:	48 89 c7             	mov    %rax,%rdi
  4043c1:	e8 a9 ff ff ff       	callq  40436f <getValueProfRecordNumValueData>
  4043c6:	89 45 fc             	mov    %eax,-0x4(%rbp)
  4043c9:	48 8b 45 e8          	mov    -0x18(%rbp),%rax
  4043cd:	8b 40 04             	mov    0x4(%rax),%eax
  4043d0:	8b 55 fc             	mov    -0x4(%rbp),%edx
  4043d3:	89 d6                	mov    %edx,%esi
  4043d5:	89 c7                	mov    %eax,%edi
  4043d7:	e8 4a ff ff ff       	callq  404326 <getValueProfRecordSize>
  4043dc:	89 c2                	mov    %eax,%edx
  4043de:	48 8b 45 e8          	mov    -0x18(%rbp),%rax
  4043e2:	48 01 d0             	add    %rdx,%rax
  4043e5:	c9                   	leaveq 
  4043e6:	c3                   	retq   

00000000004043e7 <getFirstValueProfRecord>:
  4043e7:	55                   	push   %rbp
  4043e8:	48 89 e5             	mov    %rsp,%rbp
  4043eb:	48 89 7d f8          	mov    %rdi,-0x8(%rbp)
  4043ef:	48 8b 45 f8          	mov    -0x8(%rbp),%rax
  4043f3:	48 83 c0 08          	add    $0x8,%rax
  4043f7:	5d                   	pop    %rbp
  4043f8:	c3                   	retq   

00000000004043f9 <getValueProfDataSize>:
  4043f9:	55                   	push   %rbp
  4043fa:	48 89 e5             	mov    %rsp,%rbp
  4043fd:	48 83 ec 30          	sub    $0x30,%rsp
  404401:	48 89 7d d8          	mov    %rdi,-0x28(%rbp)
  404405:	c7 45 f0 08 00 00 00 	movl   $0x8,-0x10(%rbp)
  40440c:	48 8b 45 d8          	mov    -0x28(%rbp),%rax
  404410:	48 8b 00             	mov    (%rax),%rax
  404413:	48 89 45 f8          	mov    %rax,-0x8(%rbp)
  404417:	c7 45 ec 00 00 00 00 	movl   $0x0,-0x14(%rbp)
  40441e:	eb 4d                	jmp    40446d <getValueProfDataSize+0x74>
  404420:	48 8b 45 d8          	mov    -0x28(%rbp),%rax
  404424:	48 8b 40 10          	mov    0x10(%rax),%rax
  404428:	8b 4d ec             	mov    -0x14(%rbp),%ecx
  40442b:	48 8b 55 f8          	mov    -0x8(%rbp),%rdx
  40442f:	89 ce                	mov    %ecx,%esi
  404431:	48 89 d7             	mov    %rdx,%rdi
  404434:	ff d0                	callq  *%rax
  404436:	89 45 f4             	mov    %eax,-0xc(%rbp)
  404439:	83 7d f4 00          	cmpl   $0x0,-0xc(%rbp)
  40443d:	74 29                	je     404468 <getValueProfDataSize+0x6f>
  40443f:	48 8b 45 d8          	mov    -0x28(%rbp),%rax
  404443:	48 8b 40 18          	mov    0x18(%rax),%rax
  404447:	8b 4d ec             	mov    -0x14(%rbp),%ecx
  40444a:	48 8b 55 f8          	mov    -0x8(%rbp),%rdx
  40444e:	89 ce                	mov    %ecx,%esi
  404450:	48 89 d7             	mov    %rdx,%rdi
  404453:	ff d0                	callq  *%rax
  404455:	89 c2                	mov    %eax,%edx
  404457:	8b 45 f4             	mov    -0xc(%rbp),%eax
  40445a:	89 d6                	mov    %edx,%esi
  40445c:	89 c7                	mov    %eax,%edi
  40445e:	e8 c3 fe ff ff       	callq  404326 <getValueProfRecordSize>
  404463:	01 45 f0             	add    %eax,-0x10(%rbp)
  404466:	eb 01                	jmp    404469 <getValueProfDataSize+0x70>
  404468:	90                   	nop
  404469:	83 45 ec 01          	addl   $0x1,-0x14(%rbp)
  40446d:	83 7d ec 01          	cmpl   $0x1,-0x14(%rbp)
  404471:	76 ad                	jbe    404420 <getValueProfDataSize+0x27>
  404473:	8b 45 f0             	mov    -0x10(%rbp),%eax
  404476:	c9                   	leaveq 
  404477:	c3                   	retq   

0000000000404478 <serializeValueProfRecordFrom>:
  404478:	55                   	push   %rbp
  404479:	48 89 e5             	mov    %rsp,%rbp
  40447c:	48 83 ec 40          	sub    $0x40,%rsp
  404480:	48 89 7d d8          	mov    %rdi,-0x28(%rbp)
  404484:	48 89 75 d0          	mov    %rsi,-0x30(%rbp)
  404488:	89 55 cc             	mov    %edx,-0x34(%rbp)
  40448b:	89 4d c8             	mov    %ecx,-0x38(%rbp)
  40448e:	48 8b 45 d0          	mov    -0x30(%rbp),%rax
  404492:	48 8b 00             	mov    (%rax),%rax
  404495:	48 89 45 f8          	mov    %rax,-0x8(%rbp)
  404499:	48 8b 45 d8          	mov    -0x28(%rbp),%rax
  40449d:	8b 55 cc             	mov    -0x34(%rbp),%edx
  4044a0:	89 10                	mov    %edx,(%rax)
  4044a2:	48 8b 45 d8          	mov    -0x28(%rbp),%rax
  4044a6:	8b 55 c8             	mov    -0x38(%rbp),%edx
  4044a9:	89 50 04             	mov    %edx,0x4(%rax)
  4044ac:	48 8b 45 d8          	mov    -0x28(%rbp),%rax
  4044b0:	48 89 c7             	mov    %rax,%rdi
  4044b3:	e8 92 fe ff ff       	callq  40434a <getValueProfRecordValueData>
  4044b8:	48 89 45 f0          	mov    %rax,-0x10(%rbp)
  4044bc:	c7 45 e8 00 00 00 00 	movl   $0x0,-0x18(%rbp)
  4044c3:	eb 51                	jmp    404516 <serializeValueProfRecordFrom+0x9e>
  4044c5:	48 8b 45 d0          	mov    -0x30(%rbp),%rax
  4044c9:	48 8b 40 20          	mov    0x20(%rax),%rax
  4044cd:	8b 55 e8             	mov    -0x18(%rbp),%edx
  4044d0:	8b 75 cc             	mov    -0x34(%rbp),%esi
  4044d3:	48 8b 4d f8          	mov    -0x8(%rbp),%rcx
  4044d7:	48 89 cf             	mov    %rcx,%rdi
  4044da:	ff d0                	callq  *%rax
  4044dc:	89 45 ec             	mov    %eax,-0x14(%rbp)
  4044df:	8b 45 ec             	mov    -0x14(%rbp),%eax
  4044e2:	89 c1                	mov    %eax,%ecx
  4044e4:	48 8b 55 d8          	mov    -0x28(%rbp),%rdx
  4044e8:	8b 45 e8             	mov    -0x18(%rbp),%eax
  4044eb:	88 4c 02 08          	mov    %cl,0x8(%rdx,%rax,1)
  4044ef:	48 8b 45 d0          	mov    -0x30(%rbp),%rax
  4044f3:	48 8b 40 30          	mov    0x30(%rax),%rax
  4044f7:	8b 4d e8             	mov    -0x18(%rbp),%ecx
  4044fa:	8b 55 cc             	mov    -0x34(%rbp),%edx
  4044fd:	48 8b 75 f0          	mov    -0x10(%rbp),%rsi
  404501:	48 8b 7d f8          	mov    -0x8(%rbp),%rdi
  404505:	ff d0                	callq  *%rax
  404507:	8b 45 ec             	mov    -0x14(%rbp),%eax
  40450a:	48 c1 e0 04          	shl    $0x4,%rax
  40450e:	48 01 45 f0          	add    %rax,-0x10(%rbp)
  404512:	83 45 e8 01          	addl   $0x1,-0x18(%rbp)
  404516:	8b 45 e8             	mov    -0x18(%rbp),%eax
  404519:	3b 45 c8             	cmp    -0x38(%rbp),%eax
  40451c:	72 a7                	jb     4044c5 <serializeValueProfRecordFrom+0x4d>
  40451e:	90                   	nop
  40451f:	c9                   	leaveq 
  404520:	c3                   	retq   

0000000000404521 <serializeValueProfDataFrom>:
  404521:	55                   	push   %rbp
  404522:	48 89 e5             	mov    %rsp,%rbp
  404525:	48 83 ec 30          	sub    $0x30,%rsp
  404529:	48 89 7d d8          	mov    %rdi,-0x28(%rbp)
  40452d:	48 89 75 d0          	mov    %rsi,-0x30(%rbp)
  404531:	48 83 7d d0 00       	cmpq   $0x0,-0x30(%rbp)
  404536:	74 08                	je     404540 <serializeValueProfDataFrom+0x1f>
  404538:	48 8b 45 d0          	mov    -0x30(%rbp),%rax
  40453c:	8b 00                	mov    (%rax),%eax
  40453e:	eb 0c                	jmp    40454c <serializeValueProfDataFrom+0x2b>
  404540:	48 8b 45 d8          	mov    -0x28(%rbp),%rax
  404544:	48 89 c7             	mov    %rax,%rdi
  404547:	e8 ad fe ff ff       	callq  4043f9 <getValueProfDataSize>
  40454c:	89 45 e8             	mov    %eax,-0x18(%rbp)
  40454f:	48 83 7d d0 00       	cmpq   $0x0,-0x30(%rbp)
  404554:	75 12                	jne    404568 <serializeValueProfDataFrom+0x47>
  404556:	48 8b 45 d8          	mov    -0x28(%rbp),%rax
  40455a:	48 8b 40 38          	mov    0x38(%rax),%rax
  40455e:	8b 55 e8             	mov    -0x18(%rbp),%edx
  404561:	48 89 d7             	mov    %rdx,%rdi
  404564:	ff d0                	callq  *%rax
  404566:	eb 04                	jmp    40456c <serializeValueProfDataFrom+0x4b>
  404568:	48 8b 45 d0          	mov    -0x30(%rbp),%rax
  40456c:	48 89 45 f8          	mov    %rax,-0x8(%rbp)
  404570:	48 8b 45 f8          	mov    -0x8(%rbp),%rax
  404574:	8b 55 e8             	mov    -0x18(%rbp),%edx
  404577:	89 10                	mov    %edx,(%rax)
  404579:	48 8b 45 d8          	mov    -0x28(%rbp),%rax
  40457d:	48 8b 40 08          	mov    0x8(%rax),%rax
  404581:	48 8b 55 d8          	mov    -0x28(%rbp),%rdx
  404585:	48 8b 12             	mov    (%rdx),%rdx
  404588:	48 89 d7             	mov    %rdx,%rdi
  40458b:	ff d0                	callq  *%rax
  40458d:	89 c2                	mov    %eax,%edx
  40458f:	48 8b 45 f8          	mov    -0x8(%rbp),%rax
  404593:	89 50 04             	mov    %edx,0x4(%rax)
  404596:	48 8b 45 f8          	mov    -0x8(%rbp),%rax
  40459a:	48 89 c7             	mov    %rax,%rdi
  40459d:	e8 45 fe ff ff       	callq  4043e7 <getFirstValueProfRecord>
  4045a2:	48 89 45 f0          	mov    %rax,-0x10(%rbp)
  4045a6:	c7 45 e4 00 00 00 00 	movl   $0x0,-0x1c(%rbp)
  4045ad:	eb 4f                	jmp    4045fe <serializeValueProfDataFrom+0xdd>
  4045af:	48 8b 45 d8          	mov    -0x28(%rbp),%rax
  4045b3:	48 8b 40 10          	mov    0x10(%rax),%rax
  4045b7:	48 8b 55 d8          	mov    -0x28(%rbp),%rdx
  4045bb:	48 8b 12             	mov    (%rdx),%rdx
  4045be:	8b 4d e4             	mov    -0x1c(%rbp),%ecx
  4045c1:	89 ce                	mov    %ecx,%esi
  4045c3:	48 89 d7             	mov    %rdx,%rdi
  4045c6:	ff d0                	callq  *%rax
  4045c8:	89 45 ec             	mov    %eax,-0x14(%rbp)
  4045cb:	83 7d ec 00          	cmpl   $0x0,-0x14(%rbp)
  4045cf:	74 28                	je     4045f9 <serializeValueProfDataFrom+0xd8>
  4045d1:	8b 4d ec             	mov    -0x14(%rbp),%ecx
  4045d4:	8b 55 e4             	mov    -0x1c(%rbp),%edx
  4045d7:	48 8b 75 d8          	mov    -0x28(%rbp),%rsi
  4045db:	48 8b 45 f0          	mov    -0x10(%rbp),%rax
  4045df:	48 89 c7             	mov    %rax,%rdi
  4045e2:	e8 91 fe ff ff       	callq  404478 <serializeValueProfRecordFrom>
  4045e7:	48 8b 45 f0          	mov    -0x10(%rbp),%rax
  4045eb:	48 89 c7             	mov    %rax,%rdi
  4045ee:	e8 bb fd ff ff       	callq  4043ae <getValueProfRecordNext>
  4045f3:	48 89 45 f0          	mov    %rax,-0x10(%rbp)
  4045f7:	eb 01                	jmp    4045fa <serializeValueProfDataFrom+0xd9>
  4045f9:	90                   	nop
  4045fa:	83 45 e4 01          	addl   $0x1,-0x1c(%rbp)
  4045fe:	83 7d e4 01          	cmpl   $0x1,-0x1c(%rbp)
  404602:	76 ab                	jbe    4045af <serializeValueProfDataFrom+0x8e>
  404604:	48 8b 45 f8          	mov    -0x8(%rbp),%rax
  404608:	c9                   	leaveq 
  404609:	c3                   	retq   

000000000040460a <lprofSetupValueProfiler>:
  40460a:	55                   	push   %rbp
  40460b:	48 89 e5             	mov    %rsp,%rbp
  40460e:	48 83 ec 10          	sub    $0x10,%rsp
  404612:	48 c7 45 f8 00 00 00 	movq   $0x0,-0x8(%rbp)
  404619:	00 
  40461a:	48 8d 3d cf 14 00 00 	lea    0x14cf(%rip),%rdi        # 405af0 <__llvm_profile_filename.7+0x730>
  404621:	e8 8a c8 ff ff       	callq  400eb0 <getenv@plt>
  404626:	48 89 45 f8          	mov    %rax,-0x8(%rbp)
  40462a:	48 83 7d f8 00       	cmpq   $0x0,-0x8(%rbp)
  40462f:	74 27                	je     404658 <lprofSetupValueProfiler+0x4e>
  404631:	48 8b 45 f8          	mov    -0x8(%rbp),%rax
  404635:	0f b6 00             	movzbl (%rax),%eax
  404638:	84 c0                	test   %al,%al
  40463a:	74 1c                	je     404658 <lprofSetupValueProfiler+0x4e>
  40463c:	48 8b 45 f8          	mov    -0x8(%rbp),%rax
  404640:	48 89 c7             	mov    %rax,%rdi
  404643:	e8 d8 c8 ff ff       	callq  400f20 <atoi@plt>
  404648:	89 05 3e 3b 20 00    	mov    %eax,0x203b3e(%rip)        # 60818c <VPMaxNumValsPerSite>
  40464e:	c7 05 2c bf 20 00 01 	movl   $0x1,0x20bf2c(%rip)        # 610584 <hasNonDefaultValsPerSite>
  404655:	00 00 00 
  404658:	8b 05 2e 3b 20 00    	mov    0x203b2e(%rip),%eax        # 60818c <VPMaxNumValsPerSite>
  40465e:	3d ff 00 00 00       	cmp    $0xff,%eax
  404663:	76 0a                	jbe    40466f <lprofSetupValueProfiler+0x65>
  404665:	c7 05 1d 3b 20 00 ff 	movl   $0xff,0x203b1d(%rip)        # 60818c <VPMaxNumValsPerSite>
  40466c:	00 00 00 
  40466f:	90                   	nop
  404670:	c9                   	leaveq 
  404671:	c3                   	retq   

0000000000404672 <lprofSetMaxValsPerSite>:
  404672:	55                   	push   %rbp
  404673:	48 89 e5             	mov    %rsp,%rbp
  404676:	89 7d fc             	mov    %edi,-0x4(%rbp)
  404679:	8b 45 fc             	mov    -0x4(%rbp),%eax
  40467c:	89 05 0a 3b 20 00    	mov    %eax,0x203b0a(%rip)        # 60818c <VPMaxNumValsPerSite>
  404682:	c7 05 f8 be 20 00 01 	movl   $0x1,0x20bef8(%rip)        # 610584 <hasNonDefaultValsPerSite>
  404689:	00 00 00 
  40468c:	90                   	nop
  40468d:	5d                   	pop    %rbp
  40468e:	c3                   	retq   

000000000040468f <__llvm_profile_set_num_value_sites>:
  40468f:	55                   	push   %rbp
  404690:	48 89 e5             	mov    %rsp,%rbp
  404693:	48 89 7d f8          	mov    %rdi,-0x8(%rbp)
  404697:	89 75 f4             	mov    %esi,-0xc(%rbp)
  40469a:	89 d0                	mov    %edx,%eax
  40469c:	66 89 45 f0          	mov    %ax,-0x10(%rbp)
  4046a0:	8b 45 f4             	mov    -0xc(%rbp),%eax
  4046a3:	48 83 c0 10          	add    $0x10,%rax
  4046a7:	48 8d 14 00          	lea    (%rax,%rax,1),%rdx
  4046ab:	48 8b 45 f8          	mov    -0x8(%rbp),%rax
  4046af:	48 01 d0             	add    %rdx,%rax
  4046b2:	48 8d 50 0c          	lea    0xc(%rax),%rdx
  4046b6:	0f b7 45 f0          	movzwl -0x10(%rbp),%eax
  4046ba:	66 89 02             	mov    %ax,(%rdx)
  4046bd:	90                   	nop
  4046be:	5d                   	pop    %rbp
  4046bf:	c3                   	retq   

00000000004046c0 <__llvm_profile_iterate_data>:
  4046c0:	55                   	push   %rbp
  4046c1:	48 89 e5             	mov    %rsp,%rbp
  4046c4:	48 89 7d f8          	mov    %rdi,-0x8(%rbp)
  4046c8:	48 8b 45 f8          	mov    -0x8(%rbp),%rax
  4046cc:	48 83 c0 30          	add    $0x30,%rax
  4046d0:	5d                   	pop    %rbp
  4046d1:	c3                   	retq   

00000000004046d2 <__llvm_get_function_addr>:
  4046d2:	55                   	push   %rbp
  4046d3:	48 89 e5             	mov    %rsp,%rbp
  4046d6:	48 89 7d f8          	mov    %rdi,-0x8(%rbp)
  4046da:	48 8b 45 f8          	mov    -0x8(%rbp),%rax
  4046de:	48 8b 40 18          	mov    0x18(%rax),%rax
  4046e2:	5d                   	pop    %rbp
  4046e3:	c3                   	retq   

00000000004046e4 <allocateValueProfileCounters>:
  4046e4:	55                   	push   %rbp
  4046e5:	48 89 e5             	mov    %rsp,%rbp
  4046e8:	48 83 ec 30          	sub    $0x30,%rsp
  4046ec:	48 89 7d d8          	mov    %rdi,-0x28(%rbp)
  4046f0:	48 c7 45 f0 00 00 00 	movq   $0x0,-0x10(%rbp)
  4046f7:	00 
  4046f8:	c7 05 86 3a 20 00 00 	movl   $0x0,0x203a86(%rip)        # 608188 <hasStaticCounters>
  4046ff:	00 00 00 
  404702:	8b 05 7c be 20 00    	mov    0x20be7c(%rip),%eax        # 610584 <hasNonDefaultValsPerSite>
  404708:	85 c0                	test   %eax,%eax
  40470a:	75 0a                	jne    404716 <allocateValueProfileCounters+0x32>
  40470c:	c7 05 76 3a 20 00 ff 	movl   $0xff,0x203a76(%rip)        # 60818c <VPMaxNumValsPerSite>
  404713:	00 00 00 
  404716:	c7 45 ec 00 00 00 00 	movl   $0x0,-0x14(%rbp)
  40471d:	eb 1b                	jmp    40473a <allocateValueProfileCounters+0x56>
  40471f:	48 8b 45 d8          	mov    -0x28(%rbp),%rax
  404723:	8b 55 ec             	mov    -0x14(%rbp),%edx
  404726:	48 83 c2 10          	add    $0x10,%rdx
  40472a:	0f b7 44 50 0c       	movzwl 0xc(%rax,%rdx,2),%eax
  40472f:	0f b7 c0             	movzwl %ax,%eax
  404732:	48 01 45 f0          	add    %rax,-0x10(%rbp)
  404736:	83 45 ec 01          	addl   $0x1,-0x14(%rbp)
  40473a:	83 7d ec 01          	cmpl   $0x1,-0x14(%rbp)
  40473e:	76 df                	jbe    40471f <allocateValueProfileCounters+0x3b>
  404740:	48 8b 45 f0          	mov    -0x10(%rbp),%rax
  404744:	be 08 00 00 00       	mov    $0x8,%esi
  404749:	48 89 c7             	mov    %rax,%rdi
  40474c:	e8 af c6 ff ff       	callq  400e00 <calloc@plt>
  404751:	48 89 45 f8          	mov    %rax,-0x8(%rbp)
  404755:	48 83 7d f8 00       	cmpq   $0x0,-0x8(%rbp)
  40475a:	75 07                	jne    404763 <allocateValueProfileCounters+0x7f>
  40475c:	b8 00 00 00 00       	mov    $0x0,%eax
  404761:	eb 38                	jmp    40479b <allocateValueProfileCounters+0xb7>
  404763:	48 8b 55 f8          	mov    -0x8(%rbp),%rdx
  404767:	48 8b 45 d8          	mov    -0x28(%rbp),%rax
  40476b:	48 8d 48 20          	lea    0x20(%rax),%rcx
  40476f:	b8 00 00 00 00       	mov    $0x0,%eax
  404774:	f0 48 0f b1 11       	lock cmpxchg %rdx,(%rcx)
  404779:	0f 94 c0             	sete   %al
  40477c:	83 f0 01             	xor    $0x1,%eax
  40477f:	84 c0                	test   %al,%al
  404781:	74 13                	je     404796 <allocateValueProfileCounters+0xb2>
  404783:	48 8b 45 f8          	mov    -0x8(%rbp),%rax
  404787:	48 89 c7             	mov    %rax,%rdi
  40478a:	e8 e1 c7 ff ff       	callq  400f70 <free@plt>
  40478f:	b8 00 00 00 00       	mov    $0x0,%eax
  404794:	eb 05                	jmp    40479b <allocateValueProfileCounters+0xb7>
  404796:	b8 01 00 00 00       	mov    $0x1,%eax
  40479b:	c9                   	leaveq 
  40479c:	c3                   	retq   

000000000040479d <allocateOneNode>:
  40479d:	55                   	push   %rbp
  40479e:	48 89 e5             	mov    %rsp,%rbp
  4047a1:	48 83 ec 10          	sub    $0x10,%rsp
  4047a5:	8b 05 dd 39 20 00    	mov    0x2039dd(%rip),%eax        # 608188 <hasStaticCounters>
  4047ab:	85 c0                	test   %eax,%eax
  4047ad:	75 14                	jne    4047c3 <allocateOneNode+0x26>
  4047af:	be 18 00 00 00       	mov    $0x18,%esi
  4047b4:	bf 01 00 00 00       	mov    $0x1,%edi
  4047b9:	e8 42 c6 ff ff       	callq  400e00 <calloc@plt>
  4047be:	e9 88 00 00 00       	jmpq   40484b <allocateOneNode+0xae>
  4047c3:	48 8b 05 9e 39 20 00 	mov    0x20399e(%rip),%rax        # 608168 <CurrentVNode>
  4047ca:	48 8d 50 18          	lea    0x18(%rax),%rdx
  4047ce:	48 8b 05 9b 39 20 00 	mov    0x20399b(%rip),%rax        # 608170 <EndVNode>
  4047d5:	48 39 c2             	cmp    %rax,%rdx
  4047d8:	76 40                	jbe    40481a <allocateOneNode+0x7d>
  4047da:	8b 05 a0 bd 20 00    	mov    0x20bda0(%rip),%eax        # 610580 <OutOfNodesWarnings>
  4047e0:	8d 50 01             	lea    0x1(%rax),%edx
  4047e3:	89 15 97 bd 20 00    	mov    %edx,0x20bd97(%rip)        # 610580 <OutOfNodesWarnings>
  4047e9:	83 f8 09             	cmp    $0x9,%eax
  4047ec:	7f 25                	jg     404813 <allocateOneNode+0x76>
  4047ee:	48 8b 05 f3 37 20 00 	mov    0x2037f3(%rip),%rax        # 607fe8 <stderr@GLIBC_2.2.5>
  4047f5:	48 8b 00             	mov    (%rax),%rax
  4047f8:	48 8d 15 11 13 00 00 	lea    0x1311(%rip),%rdx        # 405b10 <__llvm_profile_filename.7+0x750>
  4047ff:	48 8d 35 2a 13 00 00 	lea    0x132a(%rip),%rsi        # 405b30 <__llvm_profile_filename.7+0x770>
  404806:	48 89 c7             	mov    %rax,%rdi
  404809:	b8 00 00 00 00       	mov    $0x0,%eax
  40480e:	e8 ed c6 ff ff       	callq  400f00 <fprintf@plt>
  404813:	b8 00 00 00 00       	mov    $0x0,%eax
  404818:	eb 31                	jmp    40484b <allocateOneNode+0xae>
  40481a:	b8 18 00 00 00       	mov    $0x18,%eax
  40481f:	f0 48 0f c1 05 40 39 	lock xadd %rax,0x203940(%rip)        # 608168 <CurrentVNode>
  404826:	20 00 
  404828:	48 89 45 f8          	mov    %rax,-0x8(%rbp)
  40482c:	48 8b 45 f8          	mov    -0x8(%rbp),%rax
  404830:	48 8d 50 18          	lea    0x18(%rax),%rdx
  404834:	48 8b 05 35 39 20 00 	mov    0x203935(%rip),%rax        # 608170 <EndVNode>
  40483b:	48 39 c2             	cmp    %rax,%rdx
  40483e:	76 07                	jbe    404847 <allocateOneNode+0xaa>
  404840:	b8 00 00 00 00       	mov    $0x0,%eax
  404845:	eb 04                	jmp    40484b <allocateOneNode+0xae>
  404847:	48 8b 45 f8          	mov    -0x8(%rbp),%rax
  40484b:	c9                   	leaveq 
  40484c:	c3                   	retq   

000000000040484d <__llvm_profile_instrument_target>:
  40484d:	55                   	push   %rbp
  40484e:	48 89 e5             	mov    %rsp,%rbp
  404851:	48 83 c4 80          	add    $0xffffffffffffff80,%rsp
  404855:	48 89 7d 98          	mov    %rdi,-0x68(%rbp)
  404859:	48 89 75 90          	mov    %rsi,-0x70(%rbp)
  40485d:	89 55 8c             	mov    %edx,-0x74(%rbp)
  404860:	48 8b 45 98          	mov    -0x68(%rbp),%rax
  404864:	48 89 45 b8          	mov    %rax,-0x48(%rbp)
  404868:	48 8b 45 90          	mov    -0x70(%rbp),%rax
  40486c:	48 89 45 c0          	mov    %rax,-0x40(%rbp)
  404870:	8b 45 8c             	mov    -0x74(%rbp),%eax
  404873:	89 45 b0             	mov    %eax,-0x50(%rbp)
  404876:	48 c7 45 c8 01 00 00 	movq   $0x1,-0x38(%rbp)
  40487d:	00 
  40487e:	48 8b 45 c0          	mov    -0x40(%rbp),%rax
  404882:	48 89 45 d0          	mov    %rax,-0x30(%rbp)
  404886:	48 83 7d d0 00       	cmpq   $0x0,-0x30(%rbp)
  40488b:	0f 84 06 02 00 00    	je     404a97 <__llvm_profile_instrument_target+0x24a>
  404891:	48 83 7d c8 00       	cmpq   $0x0,-0x38(%rbp)
  404896:	0f 84 fb 01 00 00    	je     404a97 <__llvm_profile_instrument_target+0x24a>
  40489c:	48 8b 45 d0          	mov    -0x30(%rbp),%rax
  4048a0:	48 8b 40 20          	mov    0x20(%rax),%rax
  4048a4:	48 85 c0             	test   %rax,%rax
  4048a7:	75 14                	jne    4048bd <__llvm_profile_instrument_target+0x70>
  4048a9:	48 8b 45 d0          	mov    -0x30(%rbp),%rax
  4048ad:	48 89 c7             	mov    %rax,%rdi
  4048b0:	e8 2f fe ff ff       	callq  4046e4 <allocateValueProfileCounters>
  4048b5:	85 c0                	test   %eax,%eax
  4048b7:	0f 84 da 01 00 00    	je     404a97 <__llvm_profile_instrument_target+0x24a>
  4048bd:	48 8b 45 d0          	mov    -0x30(%rbp),%rax
  4048c1:	48 8b 40 20          	mov    0x20(%rax),%rax
  4048c5:	48 89 45 d8          	mov    %rax,-0x28(%rbp)
  4048c9:	48 c7 45 e0 00 00 00 	movq   $0x0,-0x20(%rbp)
  4048d0:	00 
  4048d1:	48 c7 45 e8 00 00 00 	movq   $0x0,-0x18(%rbp)
  4048d8:	00 
  4048d9:	8b 45 b0             	mov    -0x50(%rbp),%eax
  4048dc:	48 8d 14 c5 00 00 00 	lea    0x0(,%rax,8),%rdx
  4048e3:	00 
  4048e4:	48 8b 45 d8          	mov    -0x28(%rbp),%rax
  4048e8:	48 01 d0             	add    %rdx,%rax
  4048eb:	48 8b 00             	mov    (%rax),%rax
  4048ee:	48 89 45 f0          	mov    %rax,-0x10(%rbp)
  4048f2:	48 c7 45 f8 ff ff ff 	movq   $0xffffffffffffffff,-0x8(%rbp)
  4048f9:	ff 
  4048fa:	c6 45 af 00          	movb   $0x0,-0x51(%rbp)
  4048fe:	eb 63                	jmp    404963 <__llvm_profile_instrument_target+0x116>
  404900:	48 8b 45 f0          	mov    -0x10(%rbp),%rax
  404904:	48 8b 00             	mov    (%rax),%rax
  404907:	48 39 45 b8          	cmp    %rax,-0x48(%rbp)
  40490b:	75 1c                	jne    404929 <__llvm_profile_instrument_target+0xdc>
  40490d:	48 8b 45 f0          	mov    -0x10(%rbp),%rax
  404911:	48 8b 50 08          	mov    0x8(%rax),%rdx
  404915:	48 8b 45 c8          	mov    -0x38(%rbp),%rax
  404919:	48 01 c2             	add    %rax,%rdx
  40491c:	48 8b 45 f0          	mov    -0x10(%rbp),%rax
  404920:	48 89 50 08          	mov    %rdx,0x8(%rax)
  404924:	e9 6e 01 00 00       	jmpq   404a97 <__llvm_profile_instrument_target+0x24a>
  404929:	48 8b 45 f0          	mov    -0x10(%rbp),%rax
  40492d:	48 8b 40 08          	mov    0x8(%rax),%rax
  404931:	48 3b 45 f8          	cmp    -0x8(%rbp),%rax
  404935:	73 14                	jae    40494b <__llvm_profile_instrument_target+0xfe>
  404937:	48 8b 45 f0          	mov    -0x10(%rbp),%rax
  40493b:	48 8b 40 08          	mov    0x8(%rax),%rax
  40493f:	48 89 45 f8          	mov    %rax,-0x8(%rbp)
  404943:	48 8b 45 f0          	mov    -0x10(%rbp),%rax
  404947:	48 89 45 e8          	mov    %rax,-0x18(%rbp)
  40494b:	48 8b 45 f0          	mov    -0x10(%rbp),%rax
  40494f:	48 89 45 e0          	mov    %rax,-0x20(%rbp)
  404953:	48 8b 45 f0          	mov    -0x10(%rbp),%rax
  404957:	48 8b 40 10          	mov    0x10(%rax),%rax
  40495b:	48 89 45 f0          	mov    %rax,-0x10(%rbp)
  40495f:	80 45 af 01          	addb   $0x1,-0x51(%rbp)
  404963:	48 83 7d f0 00       	cmpq   $0x0,-0x10(%rbp)
  404968:	75 96                	jne    404900 <__llvm_profile_instrument_target+0xb3>
  40496a:	0f b6 55 af          	movzbl -0x51(%rbp),%edx
  40496e:	8b 05 18 38 20 00    	mov    0x203818(%rip),%eax        # 60818c <VPMaxNumValsPerSite>
  404974:	39 c2                	cmp    %eax,%edx
  404976:	72 4e                	jb     4049c6 <__llvm_profile_instrument_target+0x179>
  404978:	48 8b 45 e8          	mov    -0x18(%rbp),%rax
  40497c:	48 8b 40 08          	mov    0x8(%rax),%rax
  404980:	48 39 45 c8          	cmp    %rax,-0x38(%rbp)
  404984:	72 24                	jb     4049aa <__llvm_profile_instrument_target+0x15d>
  404986:	48 8b 45 e8          	mov    -0x18(%rbp),%rax
  40498a:	48 89 45 f0          	mov    %rax,-0x10(%rbp)
  40498e:	48 8b 45 f0          	mov    -0x10(%rbp),%rax
  404992:	48 8b 55 b8          	mov    -0x48(%rbp),%rdx
  404996:	48 89 10             	mov    %rdx,(%rax)
  404999:	48 8b 45 f0          	mov    -0x10(%rbp),%rax
  40499d:	48 8b 55 c8          	mov    -0x38(%rbp),%rdx
  4049a1:	48 89 50 08          	mov    %rdx,0x8(%rax)
  4049a5:	e9 ed 00 00 00       	jmpq   404a97 <__llvm_profile_instrument_target+0x24a>
  4049aa:	48 8b 45 e8          	mov    -0x18(%rbp),%rax
  4049ae:	48 8b 40 08          	mov    0x8(%rax),%rax
  4049b2:	48 2b 45 c8          	sub    -0x38(%rbp),%rax
  4049b6:	48 89 c2             	mov    %rax,%rdx
  4049b9:	48 8b 45 e8          	mov    -0x18(%rbp),%rax
  4049bd:	48 89 50 08          	mov    %rdx,0x8(%rax)
  4049c1:	e9 d1 00 00 00       	jmpq   404a97 <__llvm_profile_instrument_target+0x24a>
  4049c6:	e8 d2 fd ff ff       	callq  40479d <allocateOneNode>
  4049cb:	48 89 45 f0          	mov    %rax,-0x10(%rbp)
  4049cf:	48 83 7d f0 00       	cmpq   $0x0,-0x10(%rbp)
  4049d4:	0f 84 bd 00 00 00    	je     404a97 <__llvm_profile_instrument_target+0x24a>
  4049da:	48 8b 45 f0          	mov    -0x10(%rbp),%rax
  4049de:	48 8b 55 b8          	mov    -0x48(%rbp),%rdx
  4049e2:	48 89 10             	mov    %rdx,(%rax)
  4049e5:	48 8b 45 f0          	mov    -0x10(%rbp),%rax
  4049e9:	48 8b 50 08          	mov    0x8(%rax),%rdx
  4049ed:	48 8b 45 c8          	mov    -0x38(%rbp),%rax
  4049f1:	48 01 c2             	add    %rax,%rdx
  4049f4:	48 8b 45 f0          	mov    -0x10(%rbp),%rax
  4049f8:	48 89 50 08          	mov    %rdx,0x8(%rax)
  4049fc:	c7 45 b4 00 00 00 00 	movl   $0x0,-0x4c(%rbp)
  404a03:	8b 45 b0             	mov    -0x50(%rbp),%eax
  404a06:	48 8d 14 c5 00 00 00 	lea    0x0(,%rax,8),%rdx
  404a0d:	00 
  404a0e:	48 8b 45 d8          	mov    -0x28(%rbp),%rax
  404a12:	48 01 d0             	add    %rdx,%rax
  404a15:	48 8b 00             	mov    (%rax),%rax
  404a18:	48 85 c0             	test   %rax,%rax
  404a1b:	75 2b                	jne    404a48 <__llvm_profile_instrument_target+0x1fb>
  404a1d:	48 8b 55 f0          	mov    -0x10(%rbp),%rdx
  404a21:	8b 45 b0             	mov    -0x50(%rbp),%eax
  404a24:	48 8d 0c c5 00 00 00 	lea    0x0(,%rax,8),%rcx
  404a2b:	00 
  404a2c:	48 8b 45 d8          	mov    -0x28(%rbp),%rax
  404a30:	48 01 c1             	add    %rax,%rcx
  404a33:	b8 00 00 00 00       	mov    $0x0,%eax
  404a38:	f0 48 0f b1 11       	lock cmpxchg %rdx,(%rcx)
  404a3d:	0f 94 c0             	sete   %al
  404a40:	0f b6 c0             	movzbl %al,%eax
  404a43:	89 45 b4             	mov    %eax,-0x4c(%rbp)
  404a46:	eb 33                	jmp    404a7b <__llvm_profile_instrument_target+0x22e>
  404a48:	48 83 7d e0 00       	cmpq   $0x0,-0x20(%rbp)
  404a4d:	74 2c                	je     404a7b <__llvm_profile_instrument_target+0x22e>
  404a4f:	48 8b 45 e0          	mov    -0x20(%rbp),%rax
  404a53:	48 8b 40 10          	mov    0x10(%rax),%rax
  404a57:	48 85 c0             	test   %rax,%rax
  404a5a:	75 1f                	jne    404a7b <__llvm_profile_instrument_target+0x22e>
  404a5c:	48 8b 55 f0          	mov    -0x10(%rbp),%rdx
  404a60:	48 8b 45 e0          	mov    -0x20(%rbp),%rax
  404a64:	48 8d 48 10          	lea    0x10(%rax),%rcx
  404a68:	b8 00 00 00 00       	mov    $0x0,%eax
  404a6d:	f0 48 0f b1 11       	lock cmpxchg %rdx,(%rcx)
  404a72:	0f 94 c0             	sete   %al
  404a75:	0f b6 c0             	movzbl %al,%eax
  404a78:	89 45 b4             	mov    %eax,-0x4c(%rbp)
  404a7b:	83 7d b4 00          	cmpl   $0x0,-0x4c(%rbp)
  404a7f:	75 16                	jne    404a97 <__llvm_profile_instrument_target+0x24a>
  404a81:	8b 05 01 37 20 00    	mov    0x203701(%rip),%eax        # 608188 <hasStaticCounters>
  404a87:	85 c0                	test   %eax,%eax
  404a89:	75 0c                	jne    404a97 <__llvm_profile_instrument_target+0x24a>
  404a8b:	48 8b 45 f0          	mov    -0x10(%rbp),%rax
  404a8f:	48 89 c7             	mov    %rax,%rdi
  404a92:	e8 d9 c4 ff ff       	callq  400f70 <free@plt>
  404a97:	90                   	nop
  404a98:	c9                   	leaveq 
  404a99:	c3                   	retq   

0000000000404a9a <__llvm_profile_instrument_target_value>:
  404a9a:	55                   	push   %rbp
  404a9b:	48 89 e5             	mov    %rsp,%rbp
  404a9e:	48 83 c4 80          	add    $0xffffffffffffff80,%rsp
  404aa2:	48 89 7d 98          	mov    %rdi,-0x68(%rbp)
  404aa6:	48 89 75 90          	mov    %rsi,-0x70(%rbp)
  404aaa:	89 55 8c             	mov    %edx,-0x74(%rbp)
  404aad:	48 89 4d 80          	mov    %rcx,-0x80(%rbp)
  404ab1:	48 8b 45 98          	mov    -0x68(%rbp),%rax
  404ab5:	48 89 45 b8          	mov    %rax,-0x48(%rbp)
  404ab9:	48 8b 45 90          	mov    -0x70(%rbp),%rax
  404abd:	48 89 45 c0          	mov    %rax,-0x40(%rbp)
  404ac1:	8b 45 8c             	mov    -0x74(%rbp),%eax
  404ac4:	89 45 b0             	mov    %eax,-0x50(%rbp)
  404ac7:	48 8b 45 80          	mov    -0x80(%rbp),%rax
  404acb:	48 89 45 c8          	mov    %rax,-0x38(%rbp)
  404acf:	48 8b 45 c0          	mov    -0x40(%rbp),%rax
  404ad3:	48 89 45 d0          	mov    %rax,-0x30(%rbp)
  404ad7:	48 83 7d d0 00       	cmpq   $0x0,-0x30(%rbp)
  404adc:	0f 84 06 02 00 00    	je     404ce8 <__llvm_profile_instrument_target_value+0x24e>
  404ae2:	48 83 7d c8 00       	cmpq   $0x0,-0x38(%rbp)
  404ae7:	0f 84 fb 01 00 00    	je     404ce8 <__llvm_profile_instrument_target_value+0x24e>
  404aed:	48 8b 45 d0          	mov    -0x30(%rbp),%rax
  404af1:	48 8b 40 20          	mov    0x20(%rax),%rax
  404af5:	48 85 c0             	test   %rax,%rax
  404af8:	75 14                	jne    404b0e <__llvm_profile_instrument_target_value+0x74>
  404afa:	48 8b 45 d0          	mov    -0x30(%rbp),%rax
  404afe:	48 89 c7             	mov    %rax,%rdi
  404b01:	e8 de fb ff ff       	callq  4046e4 <allocateValueProfileCounters>
  404b06:	85 c0                	test   %eax,%eax
  404b08:	0f 84 da 01 00 00    	je     404ce8 <__llvm_profile_instrument_target_value+0x24e>
  404b0e:	48 8b 45 d0          	mov    -0x30(%rbp),%rax
  404b12:	48 8b 40 20          	mov    0x20(%rax),%rax
  404b16:	48 89 45 d8          	mov    %rax,-0x28(%rbp)
  404b1a:	48 c7 45 e0 00 00 00 	movq   $0x0,-0x20(%rbp)
  404b21:	00 
  404b22:	48 c7 45 e8 00 00 00 	movq   $0x0,-0x18(%rbp)
  404b29:	00 
  404b2a:	8b 45 b0             	mov    -0x50(%rbp),%eax
  404b2d:	48 8d 14 c5 00 00 00 	lea    0x0(,%rax,8),%rdx
  404b34:	00 
  404b35:	48 8b 45 d8          	mov    -0x28(%rbp),%rax
  404b39:	48 01 d0             	add    %rdx,%rax
  404b3c:	48 8b 00             	mov    (%rax),%rax
  404b3f:	48 89 45 f0          	mov    %rax,-0x10(%rbp)
  404b43:	48 c7 45 f8 ff ff ff 	movq   $0xffffffffffffffff,-0x8(%rbp)
  404b4a:	ff 
  404b4b:	c6 45 af 00          	movb   $0x0,-0x51(%rbp)
  404b4f:	eb 63                	jmp    404bb4 <__llvm_profile_instrument_target_value+0x11a>
  404b51:	48 8b 45 f0          	mov    -0x10(%rbp),%rax
  404b55:	48 8b 00             	mov    (%rax),%rax
  404b58:	48 39 45 b8          	cmp    %rax,-0x48(%rbp)
  404b5c:	75 1c                	jne    404b7a <__llvm_profile_instrument_target_value+0xe0>
  404b5e:	48 8b 45 f0          	mov    -0x10(%rbp),%rax
  404b62:	48 8b 50 08          	mov    0x8(%rax),%rdx
  404b66:	48 8b 45 c8          	mov    -0x38(%rbp),%rax
  404b6a:	48 01 c2             	add    %rax,%rdx
  404b6d:	48 8b 45 f0          	mov    -0x10(%rbp),%rax
  404b71:	48 89 50 08          	mov    %rdx,0x8(%rax)
  404b75:	e9 6e 01 00 00       	jmpq   404ce8 <__llvm_profile_instrument_target_value+0x24e>
  404b7a:	48 8b 45 f0          	mov    -0x10(%rbp),%rax
  404b7e:	48 8b 40 08          	mov    0x8(%rax),%rax
  404b82:	48 3b 45 f8          	cmp    -0x8(%rbp),%rax
  404b86:	73 14                	jae    404b9c <__llvm_profile_instrument_target_value+0x102>
  404b88:	48 8b 45 f0          	mov    -0x10(%rbp),%rax
  404b8c:	48 8b 40 08          	mov    0x8(%rax),%rax
  404b90:	48 89 45 f8          	mov    %rax,-0x8(%rbp)
  404b94:	48 8b 45 f0          	mov    -0x10(%rbp),%rax
  404b98:	48 89 45 e8          	mov    %rax,-0x18(%rbp)
  404b9c:	48 8b 45 f0          	mov    -0x10(%rbp),%rax
  404ba0:	48 89 45 e0          	mov    %rax,-0x20(%rbp)
  404ba4:	48 8b 45 f0          	mov    -0x10(%rbp),%rax
  404ba8:	48 8b 40 10          	mov    0x10(%rax),%rax
  404bac:	48 89 45 f0          	mov    %rax,-0x10(%rbp)
  404bb0:	80 45 af 01          	addb   $0x1,-0x51(%rbp)
  404bb4:	48 83 7d f0 00       	cmpq   $0x0,-0x10(%rbp)
  404bb9:	75 96                	jne    404b51 <__llvm_profile_instrument_target_value+0xb7>
  404bbb:	0f b6 55 af          	movzbl -0x51(%rbp),%edx
  404bbf:	8b 05 c7 35 20 00    	mov    0x2035c7(%rip),%eax        # 60818c <VPMaxNumValsPerSite>
  404bc5:	39 c2                	cmp    %eax,%edx
  404bc7:	72 4e                	jb     404c17 <__llvm_profile_instrument_target_value+0x17d>
  404bc9:	48 8b 45 e8          	mov    -0x18(%rbp),%rax
  404bcd:	48 8b 40 08          	mov    0x8(%rax),%rax
  404bd1:	48 39 45 c8          	cmp    %rax,-0x38(%rbp)
  404bd5:	72 24                	jb     404bfb <__llvm_profile_instrument_target_value+0x161>
  404bd7:	48 8b 45 e8          	mov    -0x18(%rbp),%rax
  404bdb:	48 89 45 f0          	mov    %rax,-0x10(%rbp)
  404bdf:	48 8b 45 f0          	mov    -0x10(%rbp),%rax
  404be3:	48 8b 55 b8          	mov    -0x48(%rbp),%rdx
  404be7:	48 89 10             	mov    %rdx,(%rax)
  404bea:	48 8b 45 f0          	mov    -0x10(%rbp),%rax
  404bee:	48 8b 55 c8          	mov    -0x38(%rbp),%rdx
  404bf2:	48 89 50 08          	mov    %rdx,0x8(%rax)
  404bf6:	e9 ed 00 00 00       	jmpq   404ce8 <__llvm_profile_instrument_target_value+0x24e>
  404bfb:	48 8b 45 e8          	mov    -0x18(%rbp),%rax
  404bff:	48 8b 40 08          	mov    0x8(%rax),%rax
  404c03:	48 2b 45 c8          	sub    -0x38(%rbp),%rax
  404c07:	48 89 c2             	mov    %rax,%rdx
  404c0a:	48 8b 45 e8          	mov    -0x18(%rbp),%rax
  404c0e:	48 89 50 08          	mov    %rdx,0x8(%rax)
  404c12:	e9 d1 00 00 00       	jmpq   404ce8 <__llvm_profile_instrument_target_value+0x24e>
  404c17:	e8 81 fb ff ff       	callq  40479d <allocateOneNode>
  404c1c:	48 89 45 f0          	mov    %rax,-0x10(%rbp)
  404c20:	48 83 7d f0 00       	cmpq   $0x0,-0x10(%rbp)
  404c25:	0f 84 bd 00 00 00    	je     404ce8 <__llvm_profile_instrument_target_value+0x24e>
  404c2b:	48 8b 45 f0          	mov    -0x10(%rbp),%rax
  404c2f:	48 8b 55 b8          	mov    -0x48(%rbp),%rdx
  404c33:	48 89 10             	mov    %rdx,(%rax)
  404c36:	48 8b 45 f0          	mov    -0x10(%rbp),%rax
  404c3a:	48 8b 50 08          	mov    0x8(%rax),%rdx
  404c3e:	48 8b 45 c8          	mov    -0x38(%rbp),%rax
  404c42:	48 01 c2             	add    %rax,%rdx
  404c45:	48 8b 45 f0          	mov    -0x10(%rbp),%rax
  404c49:	48 89 50 08          	mov    %rdx,0x8(%rax)
  404c4d:	c7 45 b4 00 00 00 00 	movl   $0x0,-0x4c(%rbp)
  404c54:	8b 45 b0             	mov    -0x50(%rbp),%eax
  404c57:	48 8d 14 c5 00 00 00 	lea    0x0(,%rax,8),%rdx
  404c5e:	00 
  404c5f:	48 8b 45 d8          	mov    -0x28(%rbp),%rax
  404c63:	48 01 d0             	add    %rdx,%rax
  404c66:	48 8b 00             	mov    (%rax),%rax
  404c69:	48 85 c0             	test   %rax,%rax
  404c6c:	75 2b                	jne    404c99 <__llvm_profile_instrument_target_value+0x1ff>
  404c6e:	48 8b 55 f0          	mov    -0x10(%rbp),%rdx
  404c72:	8b 45 b0             	mov    -0x50(%rbp),%eax
  404c75:	48 8d 0c c5 00 00 00 	lea    0x0(,%rax,8),%rcx
  404c7c:	00 
  404c7d:	48 8b 45 d8          	mov    -0x28(%rbp),%rax
  404c81:	48 01 c1             	add    %rax,%rcx
  404c84:	b8 00 00 00 00       	mov    $0x0,%eax
  404c89:	f0 48 0f b1 11       	lock cmpxchg %rdx,(%rcx)
  404c8e:	0f 94 c0             	sete   %al
  404c91:	0f b6 c0             	movzbl %al,%eax
  404c94:	89 45 b4             	mov    %eax,-0x4c(%rbp)
  404c97:	eb 33                	jmp    404ccc <__llvm_profile_instrument_target_value+0x232>
  404c99:	48 83 7d e0 00       	cmpq   $0x0,-0x20(%rbp)
  404c9e:	74 2c                	je     404ccc <__llvm_profile_instrument_target_value+0x232>
  404ca0:	48 8b 45 e0          	mov    -0x20(%rbp),%rax
  404ca4:	48 8b 40 10          	mov    0x10(%rax),%rax
  404ca8:	48 85 c0             	test   %rax,%rax
  404cab:	75 1f                	jne    404ccc <__llvm_profile_instrument_target_value+0x232>
  404cad:	48 8b 55 f0          	mov    -0x10(%rbp),%rdx
  404cb1:	48 8b 45 e0          	mov    -0x20(%rbp),%rax
  404cb5:	48 8d 48 10          	lea    0x10(%rax),%rcx
  404cb9:	b8 00 00 00 00       	mov    $0x0,%eax
  404cbe:	f0 48 0f b1 11       	lock cmpxchg %rdx,(%rcx)
  404cc3:	0f 94 c0             	sete   %al
  404cc6:	0f b6 c0             	movzbl %al,%eax
  404cc9:	89 45 b4             	mov    %eax,-0x4c(%rbp)
  404ccc:	83 7d b4 00          	cmpl   $0x0,-0x4c(%rbp)
  404cd0:	75 16                	jne    404ce8 <__llvm_profile_instrument_target_value+0x24e>
  404cd2:	8b 05 b0 34 20 00    	mov    0x2034b0(%rip),%eax        # 608188 <hasStaticCounters>
  404cd8:	85 c0                	test   %eax,%eax
  404cda:	75 0c                	jne    404ce8 <__llvm_profile_instrument_target_value+0x24e>
  404cdc:	48 8b 45 f0          	mov    -0x10(%rbp),%rax
  404ce0:	48 89 c7             	mov    %rax,%rdi
  404ce3:	e8 88 c2 ff ff       	callq  400f70 <free@plt>
  404ce8:	90                   	nop
  404ce9:	c9                   	leaveq 
  404cea:	c3                   	retq   

0000000000404ceb <__llvm_profile_instrument_range>:
  404ceb:	55                   	push   %rbp
  404cec:	48 89 e5             	mov    %rsp,%rbp
  404cef:	48 83 ec 30          	sub    $0x30,%rsp
  404cf3:	48 89 7d f8          	mov    %rdi,-0x8(%rbp)
  404cf7:	48 89 75 f0          	mov    %rsi,-0x10(%rbp)
  404cfb:	89 55 ec             	mov    %edx,-0x14(%rbp)
  404cfe:	48 89 4d e0          	mov    %rcx,-0x20(%rbp)
  404d02:	4c 89 45 d8          	mov    %r8,-0x28(%rbp)
  404d06:	4c 89 4d d0          	mov    %r9,-0x30(%rbp)
  404d0a:	48 b8 00 00 00 00 00 	movabs $0x8000000000000000,%rax
  404d11:	00 00 80 
  404d14:	48 39 45 d0          	cmp    %rax,-0x30(%rbp)
  404d18:	74 14                	je     404d2e <__llvm_profile_instrument_range+0x43>
  404d1a:	48 8b 45 f8          	mov    -0x8(%rbp),%rax
  404d1e:	48 39 45 d0          	cmp    %rax,-0x30(%rbp)
  404d22:	7f 0a                	jg     404d2e <__llvm_profile_instrument_range+0x43>
  404d24:	48 8b 45 d0          	mov    -0x30(%rbp),%rax
  404d28:	48 89 45 f8          	mov    %rax,-0x8(%rbp)
  404d2c:	eb 20                	jmp    404d4e <__llvm_profile_instrument_range+0x63>
  404d2e:	48 8b 45 f8          	mov    -0x8(%rbp),%rax
  404d32:	48 39 45 e0          	cmp    %rax,-0x20(%rbp)
  404d36:	7f 0a                	jg     404d42 <__llvm_profile_instrument_range+0x57>
  404d38:	48 8b 45 f8          	mov    -0x8(%rbp),%rax
  404d3c:	48 39 45 d8          	cmp    %rax,-0x28(%rbp)
  404d40:	7d 0c                	jge    404d4e <__llvm_profile_instrument_range+0x63>
  404d42:	48 8b 45 d8          	mov    -0x28(%rbp),%rax
  404d46:	48 83 c0 01          	add    $0x1,%rax
  404d4a:	48 89 45 f8          	mov    %rax,-0x8(%rbp)
  404d4e:	8b 55 ec             	mov    -0x14(%rbp),%edx
  404d51:	48 8b 4d f0          	mov    -0x10(%rbp),%rcx
  404d55:	48 8b 45 f8          	mov    -0x8(%rbp),%rax
  404d59:	48 89 ce             	mov    %rcx,%rsi
  404d5c:	48 89 c7             	mov    %rax,%rdi
  404d5f:	e8 e9 fa ff ff       	callq  40484d <__llvm_profile_instrument_target>
  404d64:	90                   	nop
  404d65:	c9                   	leaveq 
  404d66:	c3                   	retq   

0000000000404d67 <getNumValueSitesRT>:
  404d67:	55                   	push   %rbp
  404d68:	48 89 e5             	mov    %rsp,%rbp
  404d6b:	48 89 7d f8          	mov    %rdi,-0x8(%rbp)
  404d6f:	89 75 f4             	mov    %esi,-0xc(%rbp)
  404d72:	48 8b 45 f8          	mov    -0x8(%rbp),%rax
  404d76:	48 8b 00             	mov    (%rax),%rax
  404d79:	8b 55 f4             	mov    -0xc(%rbp),%edx
  404d7c:	48 83 c2 10          	add    $0x10,%rdx
  404d80:	0f b7 44 50 0c       	movzwl 0xc(%rax,%rdx,2),%eax
  404d85:	0f b7 c0             	movzwl %ax,%eax
  404d88:	5d                   	pop    %rbp
  404d89:	c3                   	retq   

0000000000404d8a <getNumValueDataRT>:
  404d8a:	55                   	push   %rbp
  404d8b:	48 89 e5             	mov    %rsp,%rbp
  404d8e:	48 89 7d e8          	mov    %rdi,-0x18(%rbp)
  404d92:	89 75 e4             	mov    %esi,-0x1c(%rbp)
  404d95:	c7 45 f0 00 00 00 00 	movl   $0x0,-0x10(%rbp)
  404d9c:	48 8b 45 e8          	mov    -0x18(%rbp),%rax
  404da0:	48 89 45 f8          	mov    %rax,-0x8(%rbp)
  404da4:	48 8b 45 f8          	mov    -0x8(%rbp),%rax
  404da8:	48 8b 40 18          	mov    0x18(%rax),%rax
  404dac:	8b 55 e4             	mov    -0x1c(%rbp),%edx
  404daf:	48 c1 e2 03          	shl    $0x3,%rdx
  404db3:	48 01 d0             	add    %rdx,%rax
  404db6:	48 8b 00             	mov    (%rax),%rax
  404db9:	48 85 c0             	test   %rax,%rax
  404dbc:	75 07                	jne    404dc5 <getNumValueDataRT+0x3b>
  404dbe:	b8 00 00 00 00       	mov    $0x0,%eax
  404dc3:	eb 4f                	jmp    404e14 <getNumValueDataRT+0x8a>
  404dc5:	c7 45 f4 00 00 00 00 	movl   $0x0,-0xc(%rbp)
  404dcc:	eb 28                	jmp    404df6 <getNumValueDataRT+0x6c>
  404dce:	48 8b 45 f8          	mov    -0x8(%rbp),%rax
  404dd2:	48 8b 40 18          	mov    0x18(%rax),%rax
  404dd6:	8b 55 e4             	mov    -0x1c(%rbp),%edx
  404dd9:	48 c1 e2 03          	shl    $0x3,%rdx
  404ddd:	48 01 d0             	add    %rdx,%rax
  404de0:	48 8b 10             	mov    (%rax),%rdx
  404de3:	8b 45 f4             	mov    -0xc(%rbp),%eax
  404de6:	48 01 d0             	add    %rdx,%rax
  404de9:	0f b6 00             	movzbl (%rax),%eax
  404dec:	0f b6 c0             	movzbl %al,%eax
  404def:	01 45 f0             	add    %eax,-0x10(%rbp)
  404df2:	83 45 f4 01          	addl   $0x1,-0xc(%rbp)
  404df6:	48 8b 45 f8          	mov    -0x8(%rbp),%rax
  404dfa:	48 8b 00             	mov    (%rax),%rax
  404dfd:	8b 55 e4             	mov    -0x1c(%rbp),%edx
  404e00:	48 83 c2 10          	add    $0x10,%rdx
  404e04:	0f b7 44 50 0c       	movzwl 0xc(%rax,%rdx,2),%eax
  404e09:	0f b7 c0             	movzwl %ax,%eax
  404e0c:	39 45 f4             	cmp    %eax,-0xc(%rbp)
  404e0f:	72 bd                	jb     404dce <getNumValueDataRT+0x44>
  404e11:	8b 45 f0             	mov    -0x10(%rbp),%eax
  404e14:	5d                   	pop    %rbp
  404e15:	c3                   	retq   

0000000000404e16 <getNumValueDataForSiteRT>:
  404e16:	55                   	push   %rbp
  404e17:	48 89 e5             	mov    %rsp,%rbp
  404e1a:	48 89 7d e8          	mov    %rdi,-0x18(%rbp)
  404e1e:	89 75 e4             	mov    %esi,-0x1c(%rbp)
  404e21:	89 55 e0             	mov    %edx,-0x20(%rbp)
  404e24:	48 8b 45 e8          	mov    -0x18(%rbp),%rax
  404e28:	48 89 45 f8          	mov    %rax,-0x8(%rbp)
  404e2c:	48 8b 45 f8          	mov    -0x8(%rbp),%rax
  404e30:	48 8b 40 18          	mov    0x18(%rax),%rax
  404e34:	8b 55 e4             	mov    -0x1c(%rbp),%edx
  404e37:	48 c1 e2 03          	shl    $0x3,%rdx
  404e3b:	48 01 d0             	add    %rdx,%rax
  404e3e:	48 8b 10             	mov    (%rax),%rdx
  404e41:	8b 45 e0             	mov    -0x20(%rbp),%eax
  404e44:	48 01 d0             	add    %rdx,%rax
  404e47:	0f b6 00             	movzbl (%rax),%eax
  404e4a:	0f b6 c0             	movzbl %al,%eax
  404e4d:	5d                   	pop    %rbp
  404e4e:	c3                   	retq   

0000000000404e4f <initializeValueProfRuntimeRecord>:
  404e4f:	55                   	push   %rbp
  404e50:	48 89 e5             	mov    %rsp,%rbp
  404e53:	48 89 7d c8          	mov    %rdi,-0x38(%rbp)
  404e57:	48 89 75 c0          	mov    %rsi,-0x40(%rbp)
  404e5b:	c7 45 e4 00 00 00 00 	movl   $0x0,-0x1c(%rbp)
  404e62:	c7 45 e8 00 00 00 00 	movl   $0x0,-0x18(%rbp)
  404e69:	48 8b 45 c8          	mov    -0x38(%rbp),%rax
  404e6d:	48 8b 40 20          	mov    0x20(%rax),%rax
  404e71:	48 89 45 f8          	mov    %rax,-0x8(%rbp)
  404e75:	48 8b 45 c8          	mov    -0x38(%rbp),%rax
  404e79:	48 89 05 20 b7 20 00 	mov    %rax,0x20b720(%rip)        # 6105a0 <RTRecord>
  404e80:	48 8b 45 c0          	mov    -0x40(%rbp),%rax
